ccollections
defaultdict
p0
(c__builtin__
list
p1
tp2
Rp3
I0
(dp4
I0
I1
sI1
I1
sI2
I1
sI3
I1
sI4
I1
sI5
I1
sI6
I1
sI7
I1
sI8
I0
sI9
I0
sI10
I0
sI11
I0
sI12
I1
sI13
I0
sI14
I1
sI15
I1
sI16
I1
sI17
I1
sI18
I1
sI19
I1
sI20
I0
sI21
I1
sI22
I1
sI23
I1
sI24
I0
sI25
I1
sI26
I1
sI27
I0
sI28
I1
sI29
I1
sI30
I1
sI31
I1
sI32
I1
sI33
I0
sI34
I0
sI35
I1
sI36
I1
sI37
I1
sI38
I1
sI39
I1
sI40
I0
sI41
I0
sI42
I0
sI43
I1
sI44
I0
sI45
I1
sI46
I1
sI47
I1
sI48
I0
sI49
I1
sI50
I0
sI51
I0
sI52
I1
sI53
I0
sI54
I1
sI55
I1
sI56
I1
sI57
I0
sI58
I0
sI59
I1
sI60
I1
sI61
I1
sI62
I1
sI63
I0
sI64
I0
sI65
I1
sI66
I1
sI67
I1
sI68
I1
sI69
I0
sI70
I1
sI71
I1
sI72
I0
sI73
I1
sI74
I0
sI75
I1
sI76
I1
sI77
I1
sI78
I0
sI79
I0
sI80
I0
sI81
I0
sI82
I1
sI83
I1
sI84
I1
sI85
I1
sI86
I1
sI87
I1
sI88
I1
sI89
I1
sI90
I1
sI91
I0
sI92
I0
sI93
I0
sI94
I0
sI95
I0
sI96
I1
sI97
I1
sI98
I1
sI99
I1
sI100
I0
sI101
I1
sI102
I1
sI103
I1
sI104
I1
sI105
I1
sI106
I1
sI107
I1
sI108
I0
sI109
I0
sI110
I0
sI111
I1
sI112
I1
sI113
I1
sI114
I1
sI115
I1
sI116
I1
sI117
I1
sI118
I1
sI119
I0
sI120
I1
sI121
I1
sI122
I0
sI123
I1
sI124
I1
sI125
I1
sI126
I0
sI127
I1
sI128
I1
sI129
I1
sI130
I0
sI131
I1
sI132
I1
sI133
I0
sI134
I0
sI135
I0
sI136
I0
sI137
I1
sI138
I1
sI139
I1
sI140
I1
sI141
I1
sI142
I1
sI143
I1
sI144
I1
sI145
I0
sI146
I1
sI147
I1
sI148
I1
sI149
I0
sI150
I0
sI151
I0
sI152
I1
sI153
I0
sI154
I0
sI155
I1
sI156
I1
sI157
I1
sI158
I1
sI159
I0
sI160
I1
sI161
I1
sI162
I1
sI163
I1
sI164
I1
sI165
I0
sI166
I1
sI167
I0
sI168
I1
sI169
I0
sI170
I1
sI171
I0
sI172
I0
sI173
I0
sI174
I0
sI175
I1
sI176
I1
sI177
I1
sI178
I0
sI179
I1
sI180
I1
sI181
I1
sI182
I0
sI183
I1
sI184
I1
sI185
I0
sI186
I0
sI187
I0
sI188
I1
sI189
I1
sI190
I0
sI191
I1
sI192
I1
sI193
I1
sI194
I1
sI195
I0
sI196
I0
sI197
I1
sI198
I1
sI199
I1
sI200
I0
sI201
I0
sI202
I0
sI203
I0
sI204
I1
sI205
I0
sI206
I1
sI207
I0
sI208
I1
sI209
I1
sI210
I1
sI211
I0
sI212
I0
sI213
I0
sI214
I0
sI215
I1
sI216
I1
sI217
I0
sI218
I0
sI219
I1
sI220
I1
sI221
I0
sI222
I1
sI223
I0
sI224
I1
sI225
I1
sI226
I0
sI227
I0
sI228
I0
sI229
I0
sI230
I1
sI231
I0
sI232
I1
sI233
I1
sI234
I0
sI235
I1
sI236
I1
sI237
I1
sI238
I1
sI239
I0
sI240
I0
sI241
I1
sI242
I1
sI243
I1
sI244
I1
sI245
I1
sI246
I1
sI247
I1
sI248
I1
sI249
I1
sI250
I1
sI251
I0
sI252
I1
sI253
I1
sI254
I1
sI255
I0
ssI1
(dp5
I0
I1
sI1
I1
sI2
I1
sI3
I1
sI4
I1
sI5
I1
sI6
I1
sI7
I1
sI8
I0
sI9
I0
sI10
I0
sI11
I0
sI12
I1
sI13
I0
sI14
I1
sI15
I1
sI16
I1
sI17
I1
sI18
I1
sI19
I1
sI20
I0
sI21
I1
sI22
I1
sI23
I1
sI24
I0
sI25
I1
sI26
I1
sI27
I0
sI28
I1
sI29
I1
sI30
I1
sI31
I1
sI32
I1
sI33
I0
sI34
I0
sI35
I1
sI36
I1
sI37
I1
sI38
I1
sI39
I1
sI40
I0
sI41
I0
sI42
I0
sI43
I1
sI44
I0
sI45
I1
sI46
I1
sI47
I1
sI48
I0
sI49
I1
sI50
I0
sI51
I0
sI52
I1
sI53
I0
sI54
I1
sI55
I1
sI56
I1
sI57
I0
sI58
I0
sI59
I1
sI60
I1
sI61
I1
sI62
I1
sI63
I0
sI64
I0
sI65
I1
sI66
I1
sI67
I1
sI68
I1
sI69
I0
sI70
I1
sI71
I1
sI72
I0
sI73
I1
sI74
I0
sI75
I1
sI76
I1
sI77
I1
sI78
I0
sI79
I0
sI80
I0
sI81
I0
sI82
I1
sI83
I1
sI84
I1
sI85
I1
sI86
I1
sI87
I1
sI88
I1
sI89
I1
sI90
I1
sI91
I0
sI92
I0
sI93
I0
sI94
I0
sI95
I0
sI96
I1
sI97
I1
sI98
I1
sI99
I1
sI100
I0
sI101
I1
sI102
I1
sI103
I1
sI104
I1
sI105
I1
sI106
I1
sI107
I1
sI108
I0
sI109
I0
sI110
I0
sI111
I1
sI112
I1
sI113
I1
sI114
I1
sI115
I1
sI116
I1
sI117
I1
sI118
I1
sI119
I0
sI120
I1
sI121
I1
sI122
I0
sI123
I1
sI124
I1
sI125
I1
sI126
I0
sI127
I1
sI128
I1
sI129
I1
sI130
I0
sI131
I1
sI132
I1
sI133
I0
sI134
I0
sI135
I0
sI136
I0
sI137
I1
sI138
I1
sI139
I1
sI140
I1
sI141
I1
sI142
I1
sI143
I1
sI144
I1
sI145
I0
sI146
I1
sI147
I1
sI148
I1
sI149
I0
sI150
I0
sI151
I0
sI152
I1
sI153
I0
sI154
I0
sI155
I1
sI156
I1
sI157
I1
sI158
I1
sI159
I0
sI160
I1
sI161
I1
sI162
I1
sI163
I1
sI164
I1
sI165
I0
sI166
I1
sI167
I0
sI168
I1
sI169
I0
sI170
I1
sI171
I0
sI172
I0
sI173
I0
sI174
I0
sI175
I1
sI176
I1
sI177
I1
sI178
I0
sI179
I1
sI180
I1
sI181
I1
sI182
I0
sI183
I1
sI184
I1
sI185
I0
sI186
I0
sI187
I0
sI188
I1
sI189
I1
sI190
I0
sI191
I1
sI192
I1
sI193
I1
sI194
I1
sI195
I0
sI196
I0
sI197
I1
sI198
I1
sI199
I1
sI200
I0
sI201
I0
sI202
I0
sI203
I0
sI204
I1
sI205
I0
sI206
I1
sI207
I0
sI208
I1
sI209
I1
sI210
I1
sI211
I0
sI212
I0
sI213
I0
sI214
I0
sI215
I1
sI216
I1
sI217
I0
sI218
I0
sI219
I1
sI220
I1
sI221
I0
sI222
I1
sI223
I0
sI224
I1
sI225
I1
sI226
I0
sI227
I0
sI228
I0
sI229
I0
sI230
I1
sI231
I0
sI232
I1
sI233
I1
sI234
I0
sI235
I1
sI236
I1
sI237
I1
sI238
I1
sI239
I0
sI240
I0
sI241
I1
sI242
I1
sI243
I1
sI244
I1
sI245
I1
sI246
I1
sI247
I1
sI248
I1
sI249
I1
sI250
I1
sI251
I0
sI252
I1
sI253
I1
sI254
I1
sI255
I0
ssI2
(dp6
I0
I1
sI1
I1
sI2
I1
sI3
I1
sI4
I1
sI5
I1
sI6
I1
sI7
I1
sI8
I0
sI9
I0
sI10
I0
sI11
I0
sI12
I1
sI13
I0
sI14
I1
sI15
I1
sI16
I1
sI17
I1
sI18
I1
sI19
I1
sI20
I0
sI21
I1
sI22
I1
sI23
I1
sI24
I0
sI25
I1
sI26
I1
sI27
I0
sI28
I1
sI29
I1
sI30
I1
sI31
I1
sI32
I1
sI33
I0
sI34
I0
sI35
I1
sI36
I1
sI37
I1
sI38
I1
sI39
I1
sI40
I0
sI41
I0
sI42
I0
sI43
I1
sI44
I0
sI45
I1
sI46
I1
sI47
I1
sI48
I0
sI49
I1
sI50
I0
sI51
I0
sI52
I1
sI53
I0
sI54
I1
sI55
I1
sI56
I1
sI57
I0
sI58
I0
sI59
I1
sI60
I1
sI61
I1
sI62
I1
sI63
I0
sI64
I0
sI65
I1
sI66
I1
sI67
I1
sI68
I1
sI69
I0
sI70
I1
sI71
I1
sI72
I0
sI73
I1
sI74
I0
sI75
I1
sI76
I1
sI77
I1
sI78
I0
sI79
I0
sI80
I0
sI81
I0
sI82
I1
sI83
I1
sI84
I1
sI85
I1
sI86
I1
sI87
I1
sI88
I1
sI89
I1
sI90
I1
sI91
I0
sI92
I0
sI93
I0
sI94
I0
sI95
I0
sI96
I1
sI97
I1
sI98
I1
sI99
I1
sI100
I0
sI101
I1
sI102
I1
sI103
I1
sI104
I1
sI105
I1
sI106
I1
sI107
I1
sI108
I0
sI109
I0
sI110
I0
sI111
I1
sI112
I1
sI113
I1
sI114
I1
sI115
I1
sI116
I1
sI117
I1
sI118
I1
sI119
I0
sI120
I1
sI121
I1
sI122
I0
sI123
I1
sI124
I1
sI125
I1
sI126
I0
sI127
I1
sI128
I1
sI129
I1
sI130
I0
sI131
I1
sI132
I1
sI133
I0
sI134
I0
sI135
I0
sI136
I0
sI137
I1
sI138
I1
sI139
I1
sI140
I1
sI141
I1
sI142
I1
sI143
I1
sI144
I1
sI145
I0
sI146
I1
sI147
I1
sI148
I1
sI149
I0
sI150
I0
sI151
I0
sI152
I1
sI153
I0
sI154
I0
sI155
I1
sI156
I1
sI157
I1
sI158
I1
sI159
I0
sI160
I1
sI161
I1
sI162
I1
sI163
I1
sI164
I1
sI165
I0
sI166
I1
sI167
I0
sI168
I1
sI169
I0
sI170
I1
sI171
I0
sI172
I0
sI173
I0
sI174
I0
sI175
I1
sI176
I1
sI177
I1
sI178
I0
sI179
I1
sI180
I1
sI181
I1
sI182
I0
sI183
I1
sI184
I1
sI185
I0
sI186
I0
sI187
I0
sI188
I1
sI189
I1
sI190
I0
sI191
I1
sI192
I1
sI193
I1
sI194
I1
sI195
I0
sI196
I0
sI197
I1
sI198
I1
sI199
I1
sI200
I0
sI201
I0
sI202
I0
sI203
I0
sI204
I1
sI205
I0
sI206
I1
sI207
I0
sI208
I1
sI209
I1
sI210
I1
sI211
I0
sI212
I0
sI213
I0
sI214
I0
sI215
I1
sI216
I1
sI217
I0
sI218
I0
sI219
I1
sI220
I1
sI221
I0
sI222
I1
sI223
I0
sI224
I1
sI225
I1
sI226
I0
sI227
I0
sI228
I0
sI229
I0
sI230
I1
sI231
I0
sI232
I1
sI233
I1
sI234
I0
sI235
I1
sI236
I1
sI237
I1
sI238
I1
sI239
I0
sI240
I0
sI241
I1
sI242
I1
sI243
I1
sI244
I1
sI245
I1
sI246
I1
sI247
I1
sI248
I1
sI249
I1
sI250
I1
sI251
I0
sI252
I1
sI253
I1
sI254
I1
sI255
I0
ssI3
(dp7
I0
I1
sI1
I1
sI2
I1
sI3
I1
sI4
I1
sI5
I1
sI6
I1
sI7
I1
sI8
I0
sI9
I0
sI10
I0
sI11
I0
sI12
I1
sI13
I0
sI14
I1
sI15
I1
sI16
I1
sI17
I1
sI18
I1
sI19
I1
sI20
I0
sI21
I1
sI22
I1
sI23
I1
sI24
I0
sI25
I1
sI26
I1
sI27
I0
sI28
I1
sI29
I1
sI30
I1
sI31
I1
sI32
I1
sI33
I0
sI34
I0
sI35
I1
sI36
I1
sI37
I1
sI38
I1
sI39
I1
sI40
I0
sI41
I0
sI42
I0
sI43
I1
sI44
I0
sI45
I1
sI46
I1
sI47
I1
sI48
I0
sI49
I1
sI50
I0
sI51
I0
sI52
I1
sI53
I0
sI54
I1
sI55
I1
sI56
I1
sI57
I0
sI58
I0
sI59
I1
sI60
I1
sI61
I1
sI62
I1
sI63
I0
sI64
I0
sI65
I1
sI66
I1
sI67
I1
sI68
I1
sI69
I0
sI70
I1
sI71
I1
sI72
I0
sI73
I1
sI74
I0
sI75
I1
sI76
I1
sI77
I1
sI78
I0
sI79
I0
sI80
I0
sI81
I0
sI82
I1
sI83
I1
sI84
I1
sI85
I1
sI86
I1
sI87
I1
sI88
I1
sI89
I1
sI90
I1
sI91
I0
sI92
I0
sI93
I0
sI94
I0
sI95
I0
sI96
I1
sI97
I1
sI98
I1
sI99
I1
sI100
I0
sI101
I1
sI102
I1
sI103
I1
sI104
I1
sI105
I1
sI106
I1
sI107
I1
sI108
I0
sI109
I0
sI110
I0
sI111
I1
sI112
I1
sI113
I1
sI114
I1
sI115
I1
sI116
I1
sI117
I1
sI118
I1
sI119
I0
sI120
I1
sI121
I1
sI122
I0
sI123
I1
sI124
I1
sI125
I1
sI126
I0
sI127
I1
sI128
I1
sI129
I1
sI130
I0
sI131
I1
sI132
I1
sI133
I0
sI134
I0
sI135
I0
sI136
I0
sI137
I1
sI138
I1
sI139
I1
sI140
I1
sI141
I1
sI142
I1
sI143
I1
sI144
I1
sI145
I0
sI146
I1
sI147
I1
sI148
I1
sI149
I0
sI150
I0
sI151
I0
sI152
I1
sI153
I0
sI154
I0
sI155
I1
sI156
I1
sI157
I1
sI158
I1
sI159
I0
sI160
I1
sI161
I1
sI162
I1
sI163
I1
sI164
I1
sI165
I0
sI166
I1
sI167
I0
sI168
I1
sI169
I0
sI170
I1
sI171
I0
sI172
I0
sI173
I0
sI174
I0
sI175
I1
sI176
I1
sI177
I1
sI178
I0
sI179
I1
sI180
I1
sI181
I1
sI182
I0
sI183
I1
sI184
I1
sI185
I0
sI186
I0
sI187
I0
sI188
I1
sI189
I1
sI190
I0
sI191
I1
sI192
I1
sI193
I1
sI194
I1
sI195
I0
sI196
I0
sI197
I1
sI198
I1
sI199
I1
sI200
I0
sI201
I0
sI202
I0
sI203
I0
sI204
I1
sI205
I0
sI206
I1
sI207
I0
sI208
I1
sI209
I1
sI210
I1
sI211
I0
sI212
I0
sI213
I0
sI214
I0
sI215
I1
sI216
I1
sI217
I0
sI218
I0
sI219
I1
sI220
I1
sI221
I0
sI222
I1
sI223
I0
sI224
I1
sI225
I1
sI226
I0
sI227
I0
sI228
I0
sI229
I0
sI230
I1
sI231
I0
sI232
I1
sI233
I1
sI234
I0
sI235
I1
sI236
I1
sI237
I1
sI238
I1
sI239
I0
sI240
I0
sI241
I1
sI242
I1
sI243
I1
sI244
I1
sI245
I1
sI246
I1
sI247
I1
sI248
I1
sI249
I1
sI250
I1
sI251
I0
sI252
I1
sI253
I1
sI254
I1
sI255
I0
ssI4
(dp8
I0
I1
sI1
I1
sI2
I1
sI3
I1
sI4
I1
sI5
I1
sI6
I1
sI7
I1
sI8
I0
sI9
I0
sI10
I0
sI11
I0
sI12
I1
sI13
I0
sI14
I1
sI15
I1
sI16
I1
sI17
I1
sI18
I1
sI19
I1
sI20
I0
sI21
I1
sI22
I1
sI23
I1
sI24
I0
sI25
I1
sI26
I1
sI27
I0
sI28
I1
sI29
I1
sI30
I1
sI31
I1
sI32
I1
sI33
I0
sI34
I0
sI35
I1
sI36
I1
sI37
I1
sI38
I1
sI39
I1
sI40
I0
sI41
I0
sI42
I0
sI43
I1
sI44
I0
sI45
I1
sI46
I1
sI47
I1
sI48
I0
sI49
I1
sI50
I0
sI51
I0
sI52
I1
sI53
I0
sI54
I1
sI55
I1
sI56
I1
sI57
I0
sI58
I0
sI59
I1
sI60
I1
sI61
I1
sI62
I1
sI63
I0
sI64
I0
sI65
I1
sI66
I1
sI67
I1
sI68
I1
sI69
I0
sI70
I1
sI71
I1
sI72
I0
sI73
I1
sI74
I0
sI75
I1
sI76
I1
sI77
I1
sI78
I0
sI79
I0
sI80
I0
sI81
I0
sI82
I1
sI83
I1
sI84
I1
sI85
I1
sI86
I1
sI87
I1
sI88
I1
sI89
I1
sI90
I1
sI91
I0
sI92
I0
sI93
I0
sI94
I0
sI95
I0
sI96
I1
sI97
I1
sI98
I1
sI99
I1
sI100
I0
sI101
I1
sI102
I1
sI103
I1
sI104
I1
sI105
I1
sI106
I1
sI107
I1
sI108
I0
sI109
I0
sI110
I0
sI111
I1
sI112
I1
sI113
I1
sI114
I1
sI115
I1
sI116
I1
sI117
I1
sI118
I1
sI119
I0
sI120
I1
sI121
I1
sI122
I0
sI123
I1
sI124
I1
sI125
I1
sI126
I0
sI127
I1
sI128
I1
sI129
I1
sI130
I0
sI131
I1
sI132
I1
sI133
I0
sI134
I0
sI135
I0
sI136
I0
sI137
I1
sI138
I1
sI139
I1
sI140
I1
sI141
I1
sI142
I1
sI143
I1
sI144
I1
sI145
I0
sI146
I1
sI147
I1
sI148
I1
sI149
I0
sI150
I0
sI151
I0
sI152
I1
sI153
I0
sI154
I0
sI155
I1
sI156
I1
sI157
I1
sI158
I1
sI159
I0
sI160
I1
sI161
I1
sI162
I1
sI163
I1
sI164
I1
sI165
I0
sI166
I1
sI167
I0
sI168
I1
sI169
I0
sI170
I1
sI171
I0
sI172
I0
sI173
I0
sI174
I0
sI175
I1
sI176
I1
sI177
I1
sI178
I0
sI179
I1
sI180
I1
sI181
I1
sI182
I0
sI183
I1
sI184
I1
sI185
I0
sI186
I0
sI187
I0
sI188
I1
sI189
I1
sI190
I0
sI191
I1
sI192
I1
sI193
I1
sI194
I1
sI195
I0
sI196
I0
sI197
I1
sI198
I1
sI199
I1
sI200
I0
sI201
I0
sI202
I0
sI203
I0
sI204
I1
sI205
I0
sI206
I1
sI207
I0
sI208
I1
sI209
I1
sI210
I1
sI211
I0
sI212
I0
sI213
I0
sI214
I0
sI215
I1
sI216
I1
sI217
I0
sI218
I0
sI219
I1
sI220
I1
sI221
I0
sI222
I1
sI223
I0
sI224
I1
sI225
I1
sI226
I0
sI227
I0
sI228
I0
sI229
I0
sI230
I1
sI231
I0
sI232
I1
sI233
I1
sI234
I0
sI235
I1
sI236
I1
sI237
I1
sI238
I1
sI239
I0
sI240
I0
sI241
I1
sI242
I1
sI243
I1
sI244
I1
sI245
I1
sI246
I1
sI247
I1
sI248
I1
sI249
I1
sI250
I1
sI251
I0
sI252
I1
sI253
I1
sI254
I1
sI255
I0
ssI5
(dp9
I0
I1
sI1
I1
sI2
I1
sI3
I1
sI4
I1
sI5
I1
sI6
I1
sI7
I1
sI8
I0
sI9
I0
sI10
I0
sI11
I0
sI12
I1
sI13
I0
sI14
I1
sI15
I1
sI16
I1
sI17
I1
sI18
I1
sI19
I1
sI20
I0
sI21
I1
sI22
I1
sI23
I1
sI24
I0
sI25
I1
sI26
I1
sI27
I0
sI28
I1
sI29
I1
sI30
I1
sI31
I1
sI32
I1
sI33
I0
sI34
I0
sI35
I1
sI36
I1
sI37
I1
sI38
I1
sI39
I1
sI40
I0
sI41
I0
sI42
I0
sI43
I1
sI44
I0
sI45
I1
sI46
I1
sI47
I1
sI48
I0
sI49
I1
sI50
I0
sI51
I0
sI52
I1
sI53
I0
sI54
I1
sI55
I1
sI56
I1
sI57
I0
sI58
I0
sI59
I1
sI60
I1
sI61
I1
sI62
I1
sI63
I0
sI64
I0
sI65
I1
sI66
I1
sI67
I1
sI68
I1
sI69
I0
sI70
I1
sI71
I1
sI72
I0
sI73
I1
sI74
I0
sI75
I1
sI76
I1
sI77
I1
sI78
I0
sI79
I0
sI80
I0
sI81
I0
sI82
I1
sI83
I1
sI84
I1
sI85
I1
sI86
I1
sI87
I1
sI88
I1
sI89
I1
sI90
I1
sI91
I0
sI92
I0
sI93
I0
sI94
I0
sI95
I0
sI96
I1
sI97
I1
sI98
I1
sI99
I1
sI100
I0
sI101
I1
sI102
I1
sI103
I1
sI104
I1
sI105
I1
sI106
I1
sI107
I1
sI108
I0
sI109
I0
sI110
I0
sI111
I1
sI112
I1
sI113
I1
sI114
I1
sI115
I1
sI116
I1
sI117
I1
sI118
I1
sI119
I0
sI120
I1
sI121
I1
sI122
I0
sI123
I1
sI124
I1
sI125
I1
sI126
I0
sI127
I1
sI128
I1
sI129
I1
sI130
I0
sI131
I1
sI132
I1
sI133
I0
sI134
I0
sI135
I0
sI136
I0
sI137
I1
sI138
I1
sI139
I1
sI140
I1
sI141
I1
sI142
I1
sI143
I1
sI144
I1
sI145
I0
sI146
I1
sI147
I1
sI148
I1
sI149
I0
sI150
I0
sI151
I0
sI152
I1
sI153
I0
sI154
I0
sI155
I1
sI156
I1
sI157
I1
sI158
I1
sI159
I0
sI160
I1
sI161
I1
sI162
I1
sI163
I1
sI164
I1
sI165
I0
sI166
I1
sI167
I0
sI168
I1
sI169
I0
sI170
I1
sI171
I0
sI172
I0
sI173
I0
sI174
I0
sI175
I1
sI176
I1
sI177
I1
sI178
I0
sI179
I1
sI180
I1
sI181
I1
sI182
I0
sI183
I1
sI184
I1
sI185
I0
sI186
I0
sI187
I0
sI188
I1
sI189
I1
sI190
I0
sI191
I1
sI192
I1
sI193
I1
sI194
I1
sI195
I0
sI196
I0
sI197
I1
sI198
I1
sI199
I1
sI200
I0
sI201
I0
sI202
I0
sI203
I0
sI204
I1
sI205
I0
sI206
I1
sI207
I0
sI208
I1
sI209
I1
sI210
I1
sI211
I0
sI212
I0
sI213
I0
sI214
I0
sI215
I1
sI216
I1
sI217
I0
sI218
I0
sI219
I1
sI220
I1
sI221
I0
sI222
I1
sI223
I0
sI224
I1
sI225
I1
sI226
I0
sI227
I0
sI228
I0
sI229
I0
sI230
I1
sI231
I0
sI232
I1
sI233
I1
sI234
I0
sI235
I1
sI236
I1
sI237
I1
sI238
I1
sI239
I0
sI240
I0
sI241
I1
sI242
I1
sI243
I1
sI244
I1
sI245
I1
sI246
I1
sI247
I1
sI248
I1
sI249
I1
sI250
I1
sI251
I0
sI252
I1
sI253
I1
sI254
I1
sI255
I0
ssI6
(dp10
I0
I1
sI1
I1
sI2
I1
sI3
I1
sI4
I1
sI5
I1
sI6
I1
sI7
I1
sI8
I0
sI9
I0
sI10
I0
sI11
I0
sI12
I1
sI13
I0
sI14
I1
sI15
I1
sI16
I1
sI17
I1
sI18
I1
sI19
I1
sI20
I0
sI21
I1
sI22
I1
sI23
I1
sI24
I0
sI25
I1
sI26
I1
sI27
I0
sI28
I1
sI29
I1
sI30
I1
sI31
I1
sI32
I1
sI33
I0
sI34
I0
sI35
I1
sI36
I1
sI37
I1
sI38
I1
sI39
I1
sI40
I0
sI41
I0
sI42
I0
sI43
I1
sI44
I0
sI45
I1
sI46
I1
sI47
I1
sI48
I0
sI49
I1
sI50
I0
sI51
I0
sI52
I1
sI53
I0
sI54
I1
sI55
I1
sI56
I1
sI57
I0
sI58
I0
sI59
I1
sI60
I1
sI61
I1
sI62
I1
sI63
I0
sI64
I0
sI65
I1
sI66
I1
sI67
I1
sI68
I1
sI69
I0
sI70
I1
sI71
I1
sI72
I0
sI73
I1
sI74
I0
sI75
I1
sI76
I1
sI77
I1
sI78
I0
sI79
I0
sI80
I0
sI81
I0
sI82
I1
sI83
I1
sI84
I1
sI85
I1
sI86
I1
sI87
I1
sI88
I1
sI89
I1
sI90
I1
sI91
I0
sI92
I0
sI93
I0
sI94
I0
sI95
I0
sI96
I1
sI97
I1
sI98
I1
sI99
I1
sI100
I0
sI101
I1
sI102
I1
sI103
I1
sI104
I1
sI105
I1
sI106
I1
sI107
I1
sI108
I0
sI109
I0
sI110
I0
sI111
I1
sI112
I1
sI113
I1
sI114
I1
sI115
I1
sI116
I1
sI117
I1
sI118
I1
sI119
I0
sI120
I1
sI121
I1
sI122
I0
sI123
I1
sI124
I1
sI125
I1
sI126
I0
sI127
I1
sI128
I1
sI129
I1
sI130
I0
sI131
I1
sI132
I1
sI133
I0
sI134
I0
sI135
I0
sI136
I0
sI137
I1
sI138
I1
sI139
I1
sI140
I1
sI141
I1
sI142
I1
sI143
I1
sI144
I1
sI145
I0
sI146
I1
sI147
I1
sI148
I1
sI149
I0
sI150
I0
sI151
I0
sI152
I1
sI153
I0
sI154
I0
sI155
I1
sI156
I1
sI157
I1
sI158
I1
sI159
I0
sI160
I1
sI161
I1
sI162
I1
sI163
I1
sI164
I1
sI165
I0
sI166
I1
sI167
I0
sI168
I1
sI169
I0
sI170
I1
sI171
I0
sI172
I0
sI173
I0
sI174
I0
sI175
I1
sI176
I1
sI177
I1
sI178
I0
sI179
I1
sI180
I1
sI181
I1
sI182
I0
sI183
I1
sI184
I1
sI185
I0
sI186
I0
sI187
I0
sI188
I1
sI189
I1
sI190
I0
sI191
I1
sI192
I1
sI193
I1
sI194
I1
sI195
I0
sI196
I0
sI197
I1
sI198
I1
sI199
I1
sI200
I0
sI201
I0
sI202
I0
sI203
I0
sI204
I1
sI205
I0
sI206
I1
sI207
I0
sI208
I1
sI209
I1
sI210
I1
sI211
I0
sI212
I0
sI213
I0
sI214
I0
sI215
I1
sI216
I1
sI217
I0
sI218
I0
sI219
I1
sI220
I1
sI221
I0
sI222
I1
sI223
I0
sI224
I1
sI225
I1
sI226
I0
sI227
I0
sI228
I0
sI229
I0
sI230
I1
sI231
I0
sI232
I1
sI233
I1
sI234
I0
sI235
I1
sI236
I1
sI237
I1
sI238
I1
sI239
I0
sI240
I0
sI241
I1
sI242
I1
sI243
I1
sI244
I1
sI245
I1
sI246
I1
sI247
I1
sI248
I1
sI249
I1
sI250
I1
sI251
I0
sI252
I1
sI253
I1
sI254
I1
sI255
I0
ssI7
(dp11
I0
I1
sI1
I1
sI2
I1
sI3
I1
sI4
I1
sI5
I1
sI6
I1
sI7
I1
sI8
I0
sI9
I0
sI10
I0
sI11
I0
sI12
I1
sI13
I0
sI14
I1
sI15
I1
sI16
I1
sI17
I1
sI18
I1
sI19
I1
sI20
I0
sI21
I1
sI22
I1
sI23
I1
sI24
I0
sI25
I1
sI26
I1
sI27
I0
sI28
I1
sI29
I1
sI30
I1
sI31
I1
sI32
I1
sI33
I0
sI34
I0
sI35
I1
sI36
I1
sI37
I1
sI38
I1
sI39
I1
sI40
I0
sI41
I0
sI42
I0
sI43
I1
sI44
I0
sI45
I1
sI46
I1
sI47
I1
sI48
I0
sI49
I1
sI50
I0
sI51
I0
sI52
I1
sI53
I0
sI54
I1
sI55
I1
sI56
I1
sI57
I0
sI58
I0
sI59
I1
sI60
I1
sI61
I1
sI62
I1
sI63
I0
sI64
I0
sI65
I1
sI66
I1
sI67
I1
sI68
I1
sI69
I0
sI70
I1
sI71
I1
sI72
I0
sI73
I1
sI74
I0
sI75
I1
sI76
I1
sI77
I1
sI78
I0
sI79
I0
sI80
I0
sI81
I0
sI82
I1
sI83
I1
sI84
I1
sI85
I1
sI86
I1
sI87
I1
sI88
I1
sI89
I1
sI90
I1
sI91
I0
sI92
I0
sI93
I0
sI94
I0
sI95
I0
sI96
I1
sI97
I1
sI98
I1
sI99
I1
sI100
I0
sI101
I1
sI102
I1
sI103
I1
sI104
I1
sI105
I1
sI106
I1
sI107
I1
sI108
I0
sI109
I0
sI110
I0
sI111
I1
sI112
I1
sI113
I1
sI114
I1
sI115
I1
sI116
I1
sI117
I1
sI118
I1
sI119
I0
sI120
I1
sI121
I1
sI122
I0
sI123
I1
sI124
I1
sI125
I1
sI126
I0
sI127
I1
sI128
I1
sI129
I1
sI130
I0
sI131
I1
sI132
I1
sI133
I0
sI134
I0
sI135
I0
sI136
I0
sI137
I1
sI138
I1
sI139
I1
sI140
I1
sI141
I1
sI142
I1
sI143
I1
sI144
I1
sI145
I0
sI146
I1
sI147
I1
sI148
I1
sI149
I0
sI150
I0
sI151
I0
sI152
I1
sI153
I0
sI154
I0
sI155
I1
sI156
I1
sI157
I1
sI158
I1
sI159
I0
sI160
I1
sI161
I1
sI162
I1
sI163
I1
sI164
I1
sI165
I0
sI166
I1
sI167
I0
sI168
I1
sI169
I0
sI170
I1
sI171
I0
sI172
I0
sI173
I0
sI174
I0
sI175
I1
sI176
I1
sI177
I1
sI178
I0
sI179
I1
sI180
I1
sI181
I1
sI182
I0
sI183
I1
sI184
I1
sI185
I0
sI186
I0
sI187
I0
sI188
I1
sI189
I1
sI190
I0
sI191
I1
sI192
I1
sI193
I1
sI194
I1
sI195
I0
sI196
I0
sI197
I1
sI198
I1
sI199
I1
sI200
I0
sI201
I0
sI202
I0
sI203
I0
sI204
I1
sI205
I0
sI206
I1
sI207
I0
sI208
I1
sI209
I1
sI210
I1
sI211
I0
sI212
I0
sI213
I0
sI214
I0
sI215
I1
sI216
I1
sI217
I0
sI218
I0
sI219
I1
sI220
I1
sI221
I0
sI222
I1
sI223
I0
sI224
I1
sI225
I1
sI226
I0
sI227
I0
sI228
I0
sI229
I0
sI230
I1
sI231
I0
sI232
I1
sI233
I1
sI234
I0
sI235
I1
sI236
I1
sI237
I1
sI238
I1
sI239
I0
sI240
I0
sI241
I1
sI242
I1
sI243
I1
sI244
I1
sI245
I1
sI246
I1
sI247
I1
sI248
I1
sI249
I1
sI250
I1
sI251
I0
sI252
I1
sI253
I1
sI254
I1
sI255
I0
ssI8
(dp12
I0
I1
sI1
I1
sI2
I1
sI3
I1
sI4
I1
sI5
I1
sI6
I1
sI7
I1
sI8
I0
sI9
I0
sI10
I0
sI11
I0
sI12
I1
sI13
I0
sI14
I1
sI15
I1
sI16
I1
sI17
I1
sI18
I1
sI19
I1
sI20
I0
sI21
I1
sI22
I1
sI23
I1
sI24
I0
sI25
I1
sI26
I1
sI27
I0
sI28
I1
sI29
I1
sI30
I1
sI31
I1
sI32
I1
sI33
I0
sI34
I0
sI35
I1
sI36
I1
sI37
I1
sI38
I1
sI39
I1
sI40
I0
sI41
I0
sI42
I0
sI43
I1
sI44
I0
sI45
I1
sI46
I1
sI47
I1
sI48
I0
sI49
I1
sI50
I0
sI51
I0
sI52
I1
sI53
I0
sI54
I1
sI55
I1
sI56
I1
sI57
I0
sI58
I0
sI59
I1
sI60
I1
sI61
I1
sI62
I1
sI63
I0
sI64
I0
sI65
I1
sI66
I1
sI67
I1
sI68
I1
sI69
I0
sI70
I1
sI71
I1
sI72
I0
sI73
I1
sI74
I0
sI75
I1
sI76
I1
sI77
I1
sI78
I0
sI79
I0
sI80
I0
sI81
I0
sI82
I1
sI83
I1
sI84
I1
sI85
I1
sI86
I1
sI87
I1
sI88
I1
sI89
I1
sI90
I1
sI91
I0
sI92
I0
sI93
I0
sI94
I0
sI95
I0
sI96
I1
sI97
I1
sI98
I1
sI99
I1
sI100
I0
sI101
I1
sI102
I1
sI103
I1
sI104
I1
sI105
I1
sI106
I1
sI107
I1
sI108
I0
sI109
I0
sI110
I0
sI111
I1
sI112
I1
sI113
I1
sI114
I1
sI115
I1
sI116
I1
sI117
I1
sI118
I1
sI119
I0
sI120
I1
sI121
I1
sI122
I0
sI123
I1
sI124
I1
sI125
I1
sI126
I0
sI127
I1
sI128
I1
sI129
I1
sI130
I0
sI131
I1
sI132
I1
sI133
I0
sI134
I0
sI135
I0
sI136
I0
sI137
I1
sI138
I1
sI139
I1
sI140
I1
sI141
I1
sI142
I1
sI143
I1
sI144
I1
sI145
I0
sI146
I1
sI147
I1
sI148
I1
sI149
I0
sI150
I0
sI151
I0
sI152
I1
sI153
I0
sI154
I0
sI155
I1
sI156
I1
sI157
I1
sI158
I1
sI159
I0
sI160
I1
sI161
I1
sI162
I1
sI163
I1
sI164
I1
sI165
I0
sI166
I1
sI167
I0
sI168
I1
sI169
I0
sI170
I1
sI171
I0
sI172
I0
sI173
I0
sI174
I0
sI175
I1
sI176
I1
sI177
I1
sI178
I0
sI179
I1
sI180
I1
sI181
I1
sI182
I0
sI183
I1
sI184
I1
sI185
I0
sI186
I0
sI187
I0
sI188
I1
sI189
I1
sI190
I0
sI191
I1
sI192
I1
sI193
I1
sI194
I1
sI195
I0
sI196
I0
sI197
I1
sI198
I1
sI199
I1
sI200
I0
sI201
I0
sI202
I0
sI203
I0
sI204
I1
sI205
I0
sI206
I1
sI207
I0
sI208
I1
sI209
I1
sI210
I1
sI211
I0
sI212
I0
sI213
I0
sI214
I0
sI215
I1
sI216
I1
sI217
I0
sI218
I0
sI219
I1
sI220
I1
sI221
I0
sI222
I1
sI223
I0
sI224
I1
sI225
I1
sI226
I0
sI227
I0
sI228
I0
sI229
I0
sI230
I1
sI231
I0
sI232
I1
sI233
I1
sI234
I0
sI235
I1
sI236
I1
sI237
I1
sI238
I1
sI239
I0
sI240
I0
sI241
I1
sI242
I1
sI243
I1
sI244
I1
sI245
I1
sI246
I1
sI247
I1
sI248
I1
sI249
I1
sI250
I1
sI251
I0
sI252
I1
sI253
I1
sI254
I1
sI255
I0
ssI9
(dp13
I0
I1
sI1
I1
sI2
I1
sI3
I1
sI4
I1
sI5
I1
sI6
I1
sI7
I1
sI8
I0
sI9
I0
sI10
I0
sI11
I0
sI12
I1
sI13
I0
sI14
I1
sI15
I1
sI16
I1
sI17
I1
sI18
I1
sI19
I1
sI20
I0
sI21
I1
sI22
I1
sI23
I1
sI24
I0
sI25
I1
sI26
I1
sI27
I0
sI28
I1
sI29
I1
sI30
I1
sI31
I1
sI32
I1
sI33
I0
sI34
I0
sI35
I1
sI36
I1
sI37
I1
sI38
I1
sI39
I1
sI40
I0
sI41
I0
sI42
I0
sI43
I1
sI44
I0
sI45
I1
sI46
I1
sI47
I1
sI48
I0
sI49
I1
sI50
I0
sI51
I0
sI52
I1
sI53
I0
sI54
I1
sI55
I1
sI56
I1
sI57
I0
sI58
I0
sI59
I1
sI60
I1
sI61
I1
sI62
I1
sI63
I0
sI64
I0
sI65
I1
sI66
I1
sI67
I1
sI68
I1
sI69
I0
sI70
I1
sI71
I1
sI72
I0
sI73
I1
sI74
I0
sI75
I1
sI76
I1
sI77
I1
sI78
I0
sI79
I0
sI80
I0
sI81
I0
sI82
I1
sI83
I1
sI84
I1
sI85
I1
sI86
I1
sI87
I1
sI88
I1
sI89
I1
sI90
I1
sI91
I0
sI92
I0
sI93
I0
sI94
I0
sI95
I0
sI96
I1
sI97
I1
sI98
I1
sI99
I1
sI100
I0
sI101
I1
sI102
I1
sI103
I1
sI104
I1
sI105
I1
sI106
I1
sI107
I1
sI108
I0
sI109
I0
sI110
I0
sI111
I1
sI112
I1
sI113
I1
sI114
I1
sI115
I1
sI116
I1
sI117
I1
sI118
I1
sI119
I0
sI120
I1
sI121
I1
sI122
I0
sI123
I1
sI124
I1
sI125
I1
sI126
I0
sI127
I1
sI128
I1
sI129
I1
sI130
I0
sI131
I1
sI132
I1
sI133
I0
sI134
I0
sI135
I0
sI136
I0
sI137
I1
sI138
I1
sI139
I1
sI140
I1
sI141
I1
sI142
I1
sI143
I1
sI144
I1
sI145
I0
sI146
I1
sI147
I1
sI148
I1
sI149
I0
sI150
I0
sI151
I0
sI152
I1
sI153
I0
sI154
I0
sI155
I1
sI156
I1
sI157
I1
sI158
I1
sI159
I0
sI160
I1
sI161
I1
sI162
I1
sI163
I1
sI164
I1
sI165
I0
sI166
I1
sI167
I0
sI168
I1
sI169
I0
sI170
I1
sI171
I0
sI172
I0
sI173
I0
sI174
I0
sI175
I1
sI176
I1
sI177
I1
sI178
I0
sI179
I1
sI180
I1
sI181
I1
sI182
I0
sI183
I1
sI184
I1
sI185
I0
sI186
I0
sI187
I0
sI188
I1
sI189
I1
sI190
I0
sI191
I1
sI192
I1
sI193
I1
sI194
I1
sI195
I0
sI196
I0
sI197
I1
sI198
I1
sI199
I1
sI200
I0
sI201
I0
sI202
I0
sI203
I0
sI204
I1
sI205
I0
sI206
I1
sI207
I0
sI208
I1
sI209
I1
sI210
I1
sI211
I0
sI212
I0
sI213
I0
sI214
I0
sI215
I1
sI216
I1
sI217
I0
sI218
I0
sI219
I1
sI220
I1
sI221
I0
sI222
I1
sI223
I0
sI224
I1
sI225
I1
sI226
I0
sI227
I0
sI228
I0
sI229
I0
sI230
I1
sI231
I0
sI232
I1
sI233
I1
sI234
I0
sI235
I1
sI236
I1
sI237
I1
sI238
I1
sI239
I0
sI240
I0
sI241
I1
sI242
I1
sI243
I1
sI244
I1
sI245
I1
sI246
I1
sI247
I1
sI248
I1
sI249
I1
sI250
I1
sI251
I0
sI252
I1
sI253
I1
sI254
I1
sI255
I0
ssI10
(dp14
I0
I1
sI1
I1
sI2
I1
sI3
I1
sI4
I1
sI5
I1
sI6
I1
sI7
I1
sI8
I0
sI9
I0
sI10
I0
sI11
I0
sI12
I1
sI13
I0
sI14
I1
sI15
I1
sI16
I1
sI17
I1
sI18
I1
sI19
I1
sI20
I0
sI21
I1
sI22
I1
sI23
I1
sI24
I0
sI25
I1
sI26
I1
sI27
I0
sI28
I1
sI29
I1
sI30
I1
sI31
I1
sI32
I1
sI33
I0
sI34
I0
sI35
I1
sI36
I1
sI37
I1
sI38
I1
sI39
I1
sI40
I0
sI41
I0
sI42
I0
sI43
I1
sI44
I0
sI45
I1
sI46
I1
sI47
I1
sI48
I0
sI49
I1
sI50
I0
sI51
I0
sI52
I1
sI53
I0
sI54
I1
sI55
I1
sI56
I1
sI57
I0
sI58
I0
sI59
I1
sI60
I1
sI61
I1
sI62
I1
sI63
I0
sI64
I0
sI65
I1
sI66
I1
sI67
I1
sI68
I1
sI69
I0
sI70
I1
sI71
I1
sI72
I0
sI73
I1
sI74
I0
sI75
I1
sI76
I1
sI77
I1
sI78
I0
sI79
I0
sI80
I0
sI81
I0
sI82
I1
sI83
I1
sI84
I1
sI85
I1
sI86
I1
sI87
I1
sI88
I1
sI89
I1
sI90
I1
sI91
I0
sI92
I0
sI93
I0
sI94
I0
sI95
I0
sI96
I1
sI97
I1
sI98
I1
sI99
I1
sI100
I0
sI101
I1
sI102
I1
sI103
I1
sI104
I1
sI105
I1
sI106
I1
sI107
I1
sI108
I0
sI109
I0
sI110
I0
sI111
I1
sI112
I1
sI113
I1
sI114
I1
sI115
I1
sI116
I1
sI117
I1
sI118
I1
sI119
I0
sI120
I1
sI121
I1
sI122
I0
sI123
I1
sI124
I1
sI125
I1
sI126
I0
sI127
I1
sI128
I1
sI129
I1
sI130
I0
sI131
I1
sI132
I1
sI133
I0
sI134
I0
sI135
I0
sI136
I0
sI137
I1
sI138
I1
sI139
I1
sI140
I1
sI141
I1
sI142
I1
sI143
I1
sI144
I1
sI145
I0
sI146
I1
sI147
I1
sI148
I1
sI149
I0
sI150
I0
sI151
I0
sI152
I1
sI153
I0
sI154
I0
sI155
I1
sI156
I1
sI157
I1
sI158
I1
sI159
I0
sI160
I1
sI161
I1
sI162
I1
sI163
I1
sI164
I1
sI165
I0
sI166
I1
sI167
I0
sI168
I1
sI169
I0
sI170
I1
sI171
I0
sI172
I0
sI173
I0
sI174
I0
sI175
I1
sI176
I1
sI177
I1
sI178
I0
sI179
I1
sI180
I1
sI181
I1
sI182
I0
sI183
I1
sI184
I1
sI185
I0
sI186
I0
sI187
I0
sI188
I1
sI189
I1
sI190
I0
sI191
I1
sI192
I1
sI193
I1
sI194
I1
sI195
I0
sI196
I0
sI197
I1
sI198
I1
sI199
I1
sI200
I0
sI201
I0
sI202
I0
sI203
I0
sI204
I1
sI205
I0
sI206
I1
sI207
I0
sI208
I1
sI209
I1
sI210
I1
sI211
I0
sI212
I0
sI213
I0
sI214
I0
sI215
I1
sI216
I1
sI217
I0
sI218
I0
sI219
I1
sI220
I1
sI221
I0
sI222
I1
sI223
I0
sI224
I1
sI225
I1
sI226
I0
sI227
I0
sI228
I0
sI229
I0
sI230
I1
sI231
I0
sI232
I1
sI233
I1
sI234
I0
sI235
I1
sI236
I1
sI237
I1
sI238
I1
sI239
I0
sI240
I0
sI241
I1
sI242
I1
sI243
I1
sI244
I1
sI245
I1
sI246
I1
sI247
I1
sI248
I1
sI249
I1
sI250
I1
sI251
I0
sI252
I1
sI253
I1
sI254
I1
sI255
I0
ssI11
(dp15
I0
I1
sI1
I1
sI2
I1
sI3
I1
sI4
I1
sI5
I1
sI6
I1
sI7
I1
sI8
I0
sI9
I0
sI10
I0
sI11
I0
sI12
I1
sI13
I0
sI14
I1
sI15
I1
sI16
I1
sI17
I1
sI18
I1
sI19
I1
sI20
I0
sI21
I1
sI22
I1
sI23
I1
sI24
I0
sI25
I1
sI26
I1
sI27
I0
sI28
I1
sI29
I1
sI30
I1
sI31
I1
sI32
I1
sI33
I0
sI34
I0
sI35
I1
sI36
I1
sI37
I1
sI38
I1
sI39
I1
sI40
I0
sI41
I0
sI42
I0
sI43
I1
sI44
I0
sI45
I1
sI46
I1
sI47
I1
sI48
I0
sI49
I1
sI50
I0
sI51
I0
sI52
I1
sI53
I0
sI54
I1
sI55
I1
sI56
I1
sI57
I0
sI58
I0
sI59
I1
sI60
I1
sI61
I1
sI62
I1
sI63
I0
sI64
I0
sI65
I1
sI66
I1
sI67
I1
sI68
I1
sI69
I0
sI70
I1
sI71
I1
sI72
I0
sI73
I1
sI74
I0
sI75
I1
sI76
I1
sI77
I1
sI78
I0
sI79
I0
sI80
I0
sI81
I0
sI82
I1
sI83
I1
sI84
I1
sI85
I1
sI86
I1
sI87
I1
sI88
I1
sI89
I1
sI90
I1
sI91
I0
sI92
I0
sI93
I0
sI94
I0
sI95
I0
sI96
I1
sI97
I1
sI98
I1
sI99
I1
sI100
I0
sI101
I1
sI102
I1
sI103
I1
sI104
I1
sI105
I1
sI106
I1
sI107
I1
sI108
I0
sI109
I0
sI110
I0
sI111
I1
sI112
I1
sI113
I1
sI114
I1
sI115
I1
sI116
I1
sI117
I1
sI118
I1
sI119
I0
sI120
I1
sI121
I1
sI122
I0
sI123
I1
sI124
I1
sI125
I1
sI126
I0
sI127
I1
sI128
I1
sI129
I1
sI130
I0
sI131
I1
sI132
I1
sI133
I0
sI134
I0
sI135
I0
sI136
I0
sI137
I1
sI138
I1
sI139
I1
sI140
I1
sI141
I1
sI142
I1
sI143
I1
sI144
I1
sI145
I0
sI146
I1
sI147
I1
sI148
I1
sI149
I0
sI150
I0
sI151
I0
sI152
I1
sI153
I0
sI154
I0
sI155
I1
sI156
I1
sI157
I1
sI158
I1
sI159
I0
sI160
I1
sI161
I1
sI162
I1
sI163
I1
sI164
I1
sI165
I0
sI166
I1
sI167
I0
sI168
I1
sI169
I0
sI170
I1
sI171
I0
sI172
I0
sI173
I0
sI174
I0
sI175
I1
sI176
I1
sI177
I1
sI178
I0
sI179
I1
sI180
I1
sI181
I1
sI182
I0
sI183
I1
sI184
I1
sI185
I0
sI186
I0
sI187
I0
sI188
I1
sI189
I1
sI190
I0
sI191
I1
sI192
I1
sI193
I1
sI194
I1
sI195
I0
sI196
I0
sI197
I1
sI198
I1
sI199
I1
sI200
I0
sI201
I0
sI202
I0
sI203
I0
sI204
I1
sI205
I0
sI206
I1
sI207
I0
sI208
I1
sI209
I1
sI210
I1
sI211
I0
sI212
I0
sI213
I0
sI214
I0
sI215
I1
sI216
I1
sI217
I0
sI218
I0
sI219
I1
sI220
I1
sI221
I0
sI222
I1
sI223
I0
sI224
I1
sI225
I1
sI226
I0
sI227
I0
sI228
I0
sI229
I0
sI230
I1
sI231
I0
sI232
I1
sI233
I1
sI234
I0
sI235
I1
sI236
I1
sI237
I1
sI238
I1
sI239
I0
sI240
I0
sI241
I1
sI242
I1
sI243
I1
sI244
I1
sI245
I1
sI246
I1
sI247
I1
sI248
I1
sI249
I1
sI250
I1
sI251
I0
sI252
I1
sI253
I1
sI254
I1
sI255
I0
ssI12
(dp16
I0
I1
sI1
I1
sI2
I1
sI3
I1
sI4
I1
sI5
I1
sI6
I1
sI7
I1
sI8
I0
sI9
I0
sI10
I0
sI11
I0
sI12
I1
sI13
I0
sI14
I1
sI15
I1
sI16
I1
sI17
I1
sI18
I1
sI19
I1
sI20
I0
sI21
I1
sI22
I1
sI23
I1
sI24
I0
sI25
I1
sI26
I1
sI27
I0
sI28
I1
sI29
I1
sI30
I1
sI31
I1
sI32
I1
sI33
I0
sI34
I0
sI35
I1
sI36
I1
sI37
I1
sI38
I1
sI39
I1
sI40
I0
sI41
I0
sI42
I0
sI43
I1
sI44
I0
sI45
I1
sI46
I1
sI47
I1
sI48
I0
sI49
I1
sI50
I0
sI51
I0
sI52
I1
sI53
I0
sI54
I1
sI55
I1
sI56
I1
sI57
I0
sI58
I0
sI59
I1
sI60
I1
sI61
I1
sI62
I1
sI63
I0
sI64
I0
sI65
I1
sI66
I1
sI67
I1
sI68
I1
sI69
I0
sI70
I1
sI71
I1
sI72
I0
sI73
I1
sI74
I0
sI75
I1
sI76
I1
sI77
I1
sI78
I0
sI79
I0
sI80
I0
sI81
I0
sI82
I1
sI83
I1
sI84
I1
sI85
I1
sI86
I1
sI87
I1
sI88
I1
sI89
I1
sI90
I1
sI91
I0
sI92
I0
sI93
I0
sI94
I0
sI95
I0
sI96
I1
sI97
I1
sI98
I1
sI99
I1
sI100
I0
sI101
I1
sI102
I1
sI103
I1
sI104
I1
sI105
I1
sI106
I1
sI107
I1
sI108
I0
sI109
I0
sI110
I0
sI111
I1
sI112
I1
sI113
I1
sI114
I1
sI115
I1
sI116
I1
sI117
I1
sI118
I1
sI119
I0
sI120
I1
sI121
I1
sI122
I0
sI123
I1
sI124
I1
sI125
I1
sI126
I0
sI127
I1
sI128
I1
sI129
I1
sI130
I0
sI131
I1
sI132
I1
sI133
I0
sI134
I0
sI135
I0
sI136
I0
sI137
I1
sI138
I1
sI139
I1
sI140
I1
sI141
I1
sI142
I1
sI143
I1
sI144
I1
sI145
I0
sI146
I1
sI147
I1
sI148
I1
sI149
I0
sI150
I0
sI151
I0
sI152
I1
sI153
I0
sI154
I0
sI155
I1
sI156
I1
sI157
I1
sI158
I1
sI159
I0
sI160
I1
sI161
I1
sI162
I1
sI163
I1
sI164
I1
sI165
I0
sI166
I1
sI167
I0
sI168
I1
sI169
I0
sI170
I1
sI171
I0
sI172
I0
sI173
I0
sI174
I0
sI175
I1
sI176
I1
sI177
I1
sI178
I0
sI179
I1
sI180
I1
sI181
I1
sI182
I0
sI183
I1
sI184
I1
sI185
I0
sI186
I0
sI187
I0
sI188
I1
sI189
I1
sI190
I0
sI191
I1
sI192
I1
sI193
I1
sI194
I1
sI195
I0
sI196
I0
sI197
I1
sI198
I1
sI199
I1
sI200
I0
sI201
I0
sI202
I0
sI203
I0
sI204
I1
sI205
I0
sI206
I1
sI207
I0
sI208
I1
sI209
I1
sI210
I1
sI211
I0
sI212
I0
sI213
I0
sI214
I0
sI215
I1
sI216
I1
sI217
I0
sI218
I0
sI219
I1
sI220
I1
sI221
I0
sI222
I1
sI223
I0
sI224
I1
sI225
I1
sI226
I0
sI227
I0
sI228
I0
sI229
I0
sI230
I1
sI231
I0
sI232
I1
sI233
I1
sI234
I0
sI235
I1
sI236
I1
sI237
I1
sI238
I1
sI239
I0
sI240
I0
sI241
I1
sI242
I1
sI243
I1
sI244
I1
sI245
I1
sI246
I1
sI247
I1
sI248
I1
sI249
I1
sI250
I1
sI251
I0
sI252
I1
sI253
I1
sI254
I1
sI255
I0
ssI13
(dp17
I0
I1
sI1
I1
sI2
I1
sI3
I1
sI4
I1
sI5
I1
sI6
I1
sI7
I1
sI8
I0
sI9
I0
sI10
I0
sI11
I0
sI12
I1
sI13
I0
sI14
I1
sI15
I1
sI16
I1
sI17
I1
sI18
I1
sI19
I1
sI20
I0
sI21
I1
sI22
I1
sI23
I1
sI24
I0
sI25
I1
sI26
I1
sI27
I0
sI28
I1
sI29
I1
sI30
I1
sI31
I1
sI32
I1
sI33
I0
sI34
I0
sI35
I1
sI36
I1
sI37
I1
sI38
I1
sI39
I1
sI40
I0
sI41
I0
sI42
I0
sI43
I1
sI44
I0
sI45
I1
sI46
I1
sI47
I1
sI48
I0
sI49
I1
sI50
I0
sI51
I0
sI52
I1
sI53
I0
sI54
I1
sI55
I1
sI56
I1
sI57
I0
sI58
I0
sI59
I1
sI60
I1
sI61
I1
sI62
I1
sI63
I0
sI64
I0
sI65
I1
sI66
I1
sI67
I1
sI68
I1
sI69
I0
sI70
I1
sI71
I1
sI72
I0
sI73
I1
sI74
I0
sI75
I1
sI76
I1
sI77
I1
sI78
I0
sI79
I0
sI80
I0
sI81
I0
sI82
I1
sI83
I1
sI84
I1
sI85
I1
sI86
I1
sI87
I1
sI88
I1
sI89
I1
sI90
I1
sI91
I0
sI92
I0
sI93
I0
sI94
I0
sI95
I0
sI96
I1
sI97
I1
sI98
I1
sI99
I1
sI100
I0
sI101
I1
sI102
I1
sI103
I1
sI104
I1
sI105
I1
sI106
I1
sI107
I1
sI108
I0
sI109
I0
sI110
I0
sI111
I1
sI112
I1
sI113
I1
sI114
I1
sI115
I1
sI116
I1
sI117
I1
sI118
I1
sI119
I0
sI120
I1
sI121
I1
sI122
I0
sI123
I1
sI124
I1
sI125
I1
sI126
I0
sI127
I1
sI128
I1
sI129
I1
sI130
I0
sI131
I1
sI132
I1
sI133
I0
sI134
I0
sI135
I0
sI136
I0
sI137
I1
sI138
I1
sI139
I1
sI140
I1
sI141
I1
sI142
I1
sI143
I1
sI144
I1
sI145
I0
sI146
I1
sI147
I1
sI148
I1
sI149
I0
sI150
I0
sI151
I0
sI152
I1
sI153
I0
sI154
I0
sI155
I1
sI156
I1
sI157
I1
sI158
I1
sI159
I0
sI160
I1
sI161
I1
sI162
I1
sI163
I1
sI164
I1
sI165
I0
sI166
I1
sI167
I0
sI168
I1
sI169
I0
sI170
I1
sI171
I0
sI172
I0
sI173
I0
sI174
I0
sI175
I1
sI176
I1
sI177
I1
sI178
I0
sI179
I1
sI180
I1
sI181
I1
sI182
I0
sI183
I1
sI184
I1
sI185
I0
sI186
I0
sI187
I0
sI188
I1
sI189
I1
sI190
I0
sI191
I1
sI192
I1
sI193
I1
sI194
I1
sI195
I0
sI196
I0
sI197
I1
sI198
I1
sI199
I1
sI200
I0
sI201
I0
sI202
I0
sI203
I0
sI204
I1
sI205
I0
sI206
I1
sI207
I0
sI208
I1
sI209
I1
sI210
I1
sI211
I0
sI212
I0
sI213
I0
sI214
I0
sI215
I1
sI216
I1
sI217
I0
sI218
I0
sI219
I1
sI220
I1
sI221
I0
sI222
I1
sI223
I0
sI224
I1
sI225
I1
sI226
I0
sI227
I0
sI228
I0
sI229
I0
sI230
I1
sI231
I0
sI232
I1
sI233
I1
sI234
I0
sI235
I1
sI236
I1
sI237
I1
sI238
I1
sI239
I0
sI240
I0
sI241
I1
sI242
I1
sI243
I1
sI244
I1
sI245
I1
sI246
I1
sI247
I1
sI248
I1
sI249
I1
sI250
I1
sI251
I0
sI252
I1
sI253
I1
sI254
I1
sI255
I0
ssI14
(dp18
I0
I1
sI1
I1
sI2
I1
sI3
I1
sI4
I1
sI5
I1
sI6
I1
sI7
I1
sI8
I0
sI9
I0
sI10
I0
sI11
I0
sI12
I1
sI13
I0
sI14
I1
sI15
I1
sI16
I1
sI17
I1
sI18
I1
sI19
I1
sI20
I0
sI21
I1
sI22
I1
sI23
I1
sI24
I0
sI25
I1
sI26
I1
sI27
I0
sI28
I1
sI29
I1
sI30
I1
sI31
I1
sI32
I1
sI33
I0
sI34
I0
sI35
I1
sI36
I1
sI37
I1
sI38
I1
sI39
I1
sI40
I0
sI41
I0
sI42
I0
sI43
I1
sI44
I0
sI45
I1
sI46
I1
sI47
I1
sI48
I0
sI49
I1
sI50
I0
sI51
I0
sI52
I1
sI53
I0
sI54
I1
sI55
I1
sI56
I1
sI57
I0
sI58
I0
sI59
I1
sI60
I1
sI61
I1
sI62
I1
sI63
I0
sI64
I0
sI65
I1
sI66
I1
sI67
I1
sI68
I1
sI69
I0
sI70
I1
sI71
I1
sI72
I0
sI73
I1
sI74
I0
sI75
I1
sI76
I1
sI77
I1
sI78
I0
sI79
I0
sI80
I0
sI81
I0
sI82
I1
sI83
I1
sI84
I1
sI85
I1
sI86
I1
sI87
I1
sI88
I1
sI89
I1
sI90
I1
sI91
I0
sI92
I0
sI93
I0
sI94
I0
sI95
I0
sI96
I1
sI97
I1
sI98
I1
sI99
I1
sI100
I0
sI101
I1
sI102
I1
sI103
I1
sI104
I1
sI105
I1
sI106
I1
sI107
I1
sI108
I0
sI109
I0
sI110
I0
sI111
I1
sI112
I1
sI113
I1
sI114
I1
sI115
I1
sI116
I1
sI117
I1
sI118
I1
sI119
I0
sI120
I1
sI121
I1
sI122
I0
sI123
I1
sI124
I1
sI125
I1
sI126
I0
sI127
I1
sI128
I1
sI129
I1
sI130
I0
sI131
I1
sI132
I1
sI133
I0
sI134
I0
sI135
I0
sI136
I0
sI137
I1
sI138
I1
sI139
I1
sI140
I1
sI141
I1
sI142
I1
sI143
I1
sI144
I1
sI145
I0
sI146
I1
sI147
I1
sI148
I1
sI149
I0
sI150
I0
sI151
I0
sI152
I1
sI153
I0
sI154
I0
sI155
I1
sI156
I1
sI157
I1
sI158
I1
sI159
I0
sI160
I1
sI161
I1
sI162
I1
sI163
I1
sI164
I1
sI165
I0
sI166
I1
sI167
I0
sI168
I1
sI169
I0
sI170
I1
sI171
I0
sI172
I0
sI173
I0
sI174
I0
sI175
I1
sI176
I1
sI177
I1
sI178
I0
sI179
I1
sI180
I1
sI181
I1
sI182
I0
sI183
I1
sI184
I1
sI185
I0
sI186
I0
sI187
I0
sI188
I1
sI189
I1
sI190
I0
sI191
I1
sI192
I1
sI193
I1
sI194
I1
sI195
I0
sI196
I0
sI197
I1
sI198
I1
sI199
I1
sI200
I0
sI201
I0
sI202
I0
sI203
I0
sI204
I1
sI205
I0
sI206
I1
sI207
I0
sI208
I1
sI209
I1
sI210
I1
sI211
I0
sI212
I0
sI213
I0
sI214
I0
sI215
I1
sI216
I1
sI217
I0
sI218
I0
sI219
I1
sI220
I1
sI221
I0
sI222
I1
sI223
I0
sI224
I1
sI225
I1
sI226
I0
sI227
I0
sI228
I0
sI229
I0
sI230
I1
sI231
I0
sI232
I1
sI233
I1
sI234
I0
sI235
I1
sI236
I1
sI237
I1
sI238
I1
sI239
I0
sI240
I0
sI241
I1
sI242
I1
sI243
I1
sI244
I1
sI245
I1
sI246
I1
sI247
I1
sI248
I1
sI249
I1
sI250
I1
sI251
I0
sI252
I1
sI253
I1
sI254
I1
sI255
I0
ssI15
(dp19
I0
I1
sI1
I1
sI2
I1
sI3
I1
sI4
I1
sI5
I1
sI6
I1
sI7
I1
sI8
I0
sI9
I0
sI10
I0
sI11
I0
sI12
I1
sI13
I0
sI14
I1
sI15
I1
sI16
I1
sI17
I1
sI18
I1
sI19
I1
sI20
I0
sI21
I1
sI22
I1
sI23
I1
sI24
I0
sI25
I1
sI26
I1
sI27
I0
sI28
I1
sI29
I1
sI30
I1
sI31
I1
sI32
I1
sI33
I0
sI34
I0
sI35
I1
sI36
I1
sI37
I1
sI38
I1
sI39
I1
sI40
I0
sI41
I0
sI42
I0
sI43
I1
sI44
I0
sI45
I1
sI46
I1
sI47
I1
sI48
I0
sI49
I1
sI50
I0
sI51
I0
sI52
I1
sI53
I0
sI54
I1
sI55
I1
sI56
I1
sI57
I0
sI58
I0
sI59
I1
sI60
I1
sI61
I1
sI62
I1
sI63
I0
sI64
I0
sI65
I1
sI66
I1
sI67
I1
sI68
I1
sI69
I0
sI70
I1
sI71
I1
sI72
I0
sI73
I1
sI74
I0
sI75
I1
sI76
I1
sI77
I1
sI78
I0
sI79
I0
sI80
I0
sI81
I0
sI82
I1
sI83
I1
sI84
I1
sI85
I1
sI86
I1
sI87
I1
sI88
I1
sI89
I1
sI90
I1
sI91
I0
sI92
I0
sI93
I0
sI94
I0
sI95
I0
sI96
I1
sI97
I1
sI98
I1
sI99
I1
sI100
I0
sI101
I1
sI102
I1
sI103
I1
sI104
I1
sI105
I1
sI106
I1
sI107
I1
sI108
I0
sI109
I0
sI110
I0
sI111
I1
sI112
I1
sI113
I1
sI114
I1
sI115
I1
sI116
I1
sI117
I1
sI118
I1
sI119
I0
sI120
I1
sI121
I1
sI122
I0
sI123
I1
sI124
I1
sI125
I1
sI126
I0
sI127
I1
sI128
I1
sI129
I1
sI130
I0
sI131
I1
sI132
I1
sI133
I0
sI134
I0
sI135
I0
sI136
I0
sI137
I1
sI138
I1
sI139
I1
sI140
I1
sI141
I1
sI142
I1
sI143
I1
sI144
I1
sI145
I0
sI146
I1
sI147
I1
sI148
I1
sI149
I0
sI150
I0
sI151
I0
sI152
I1
sI153
I0
sI154
I0
sI155
I1
sI156
I1
sI157
I1
sI158
I1
sI159
I0
sI160
I1
sI161
I1
sI162
I1
sI163
I1
sI164
I1
sI165
I0
sI166
I1
sI167
I0
sI168
I1
sI169
I0
sI170
I1
sI171
I0
sI172
I0
sI173
I0
sI174
I0
sI175
I1
sI176
I1
sI177
I1
sI178
I0
sI179
I1
sI180
I1
sI181
I1
sI182
I0
sI183
I1
sI184
I1
sI185
I0
sI186
I0
sI187
I0
sI188
I1
sI189
I1
sI190
I0
sI191
I1
sI192
I1
sI193
I1
sI194
I1
sI195
I0
sI196
I0
sI197
I1
sI198
I1
sI199
I1
sI200
I0
sI201
I0
sI202
I0
sI203
I0
sI204
I1
sI205
I0
sI206
I1
sI207
I0
sI208
I1
sI209
I1
sI210
I1
sI211
I0
sI212
I0
sI213
I0
sI214
I0
sI215
I1
sI216
I1
sI217
I0
sI218
I0
sI219
I1
sI220
I1
sI221
I0
sI222
I1
sI223
I0
sI224
I1
sI225
I1
sI226
I0
sI227
I0
sI228
I0
sI229
I0
sI230
I1
sI231
I0
sI232
I1
sI233
I1
sI234
I0
sI235
I1
sI236
I1
sI237
I1
sI238
I1
sI239
I0
sI240
I0
sI241
I1
sI242
I1
sI243
I1
sI244
I1
sI245
I1
sI246
I1
sI247
I1
sI248
I1
sI249
I1
sI250
I1
sI251
I0
sI252
I1
sI253
I1
sI254
I1
sI255
I0
ssI16
(dp20
I0
I1
sI1
I1
sI2
I1
sI3
I1
sI4
I1
sI5
I1
sI6
I1
sI7
I1
sI8
I0
sI9
I0
sI10
I0
sI11
I0
sI12
I1
sI13
I0
sI14
I1
sI15
I1
sI16
I1
sI17
I1
sI18
I1
sI19
I1
sI20
I0
sI21
I1
sI22
I1
sI23
I1
sI24
I0
sI25
I1
sI26
I1
sI27
I0
sI28
I1
sI29
I1
sI30
I1
sI31
I1
sI32
I1
sI33
I0
sI34
I0
sI35
I1
sI36
I1
sI37
I1
sI38
I1
sI39
I1
sI40
I0
sI41
I0
sI42
I0
sI43
I1
sI44
I0
sI45
I1
sI46
I1
sI47
I1
sI48
I0
sI49
I1
sI50
I0
sI51
I0
sI52
I1
sI53
I0
sI54
I1
sI55
I1
sI56
I1
sI57
I0
sI58
I0
sI59
I1
sI60
I1
sI61
I1
sI62
I1
sI63
I0
sI64
I0
sI65
I1
sI66
I1
sI67
I1
sI68
I1
sI69
I0
sI70
I1
sI71
I1
sI72
I0
sI73
I1
sI74
I0
sI75
I1
sI76
I1
sI77
I1
sI78
I0
sI79
I0
sI80
I0
sI81
I0
sI82
I1
sI83
I1
sI84
I1
sI85
I1
sI86
I1
sI87
I1
sI88
I1
sI89
I1
sI90
I1
sI91
I0
sI92
I0
sI93
I0
sI94
I0
sI95
I0
sI96
I1
sI97
I1
sI98
I1
sI99
I1
sI100
I0
sI101
I1
sI102
I1
sI103
I1
sI104
I1
sI105
I1
sI106
I1
sI107
I1
sI108
I0
sI109
I0
sI110
I0
sI111
I1
sI112
I1
sI113
I1
sI114
I1
sI115
I1
sI116
I1
sI117
I1
sI118
I1
sI119
I0
sI120
I1
sI121
I1
sI122
I0
sI123
I1
sI124
I1
sI125
I1
sI126
I0
sI127
I1
sI128
I1
sI129
I1
sI130
I0
sI131
I1
sI132
I1
sI133
I0
sI134
I0
sI135
I0
sI136
I0
sI137
I1
sI138
I1
sI139
I1
sI140
I1
sI141
I1
sI142
I1
sI143
I1
sI144
I1
sI145
I0
sI146
I1
sI147
I1
sI148
I1
sI149
I0
sI150
I0
sI151
I0
sI152
I1
sI153
I0
sI154
I0
sI155
I1
sI156
I1
sI157
I1
sI158
I1
sI159
I0
sI160
I1
sI161
I1
sI162
I1
sI163
I1
sI164
I1
sI165
I0
sI166
I1
sI167
I0
sI168
I1
sI169
I0
sI170
I1
sI171
I0
sI172
I0
sI173
I0
sI174
I0
sI175
I1
sI176
I1
sI177
I1
sI178
I0
sI179
I1
sI180
I1
sI181
I1
sI182
I0
sI183
I1
sI184
I1
sI185
I0
sI186
I0
sI187
I0
sI188
I1
sI189
I1
sI190
I0
sI191
I1
sI192
I1
sI193
I1
sI194
I1
sI195
I0
sI196
I0
sI197
I1
sI198
I1
sI199
I1
sI200
I0
sI201
I0
sI202
I0
sI203
I0
sI204
I1
sI205
I0
sI206
I1
sI207
I0
sI208
I1
sI209
I1
sI210
I1
sI211
I0
sI212
I0
sI213
I0
sI214
I0
sI215
I1
sI216
I1
sI217
I0
sI218
I0
sI219
I1
sI220
I1
sI221
I0
sI222
I1
sI223
I0
sI224
I1
sI225
I1
sI226
I0
sI227
I0
sI228
I0
sI229
I0
sI230
I1
sI231
I0
sI232
I1
sI233
I1
sI234
I0
sI235
I1
sI236
I1
sI237
I1
sI238
I1
sI239
I0
sI240
I0
sI241
I1
sI242
I1
sI243
I1
sI244
I1
sI245
I1
sI246
I1
sI247
I1
sI248
I1
sI249
I1
sI250
I1
sI251
I0
sI252
I1
sI253
I1
sI254
I1
sI255
I0
ssI17
(dp21
I0
I1
sI1
I1
sI2
I1
sI3
I1
sI4
I1
sI5
I1
sI6
I1
sI7
I1
sI8
I0
sI9
I0
sI10
I0
sI11
I0
sI12
I1
sI13
I0
sI14
I1
sI15
I1
sI16
I1
sI17
I1
sI18
I1
sI19
I1
sI20
I0
sI21
I1
sI22
I1
sI23
I1
sI24
I0
sI25
I1
sI26
I1
sI27
I0
sI28
I1
sI29
I1
sI30
I1
sI31
I1
sI32
I1
sI33
I0
sI34
I0
sI35
I1
sI36
I1
sI37
I1
sI38
I1
sI39
I1
sI40
I0
sI41
I0
sI42
I0
sI43
I1
sI44
I0
sI45
I1
sI46
I1
sI47
I1
sI48
I0
sI49
I1
sI50
I0
sI51
I0
sI52
I1
sI53
I0
sI54
I1
sI55
I1
sI56
I1
sI57
I0
sI58
I0
sI59
I1
sI60
I1
sI61
I1
sI62
I1
sI63
I0
sI64
I0
sI65
I1
sI66
I1
sI67
I1
sI68
I1
sI69
I0
sI70
I1
sI71
I1
sI72
I0
sI73
I1
sI74
I0
sI75
I1
sI76
I1
sI77
I1
sI78
I0
sI79
I0
sI80
I0
sI81
I0
sI82
I1
sI83
I1
sI84
I1
sI85
I1
sI86
I1
sI87
I1
sI88
I1
sI89
I1
sI90
I1
sI91
I0
sI92
I0
sI93
I0
sI94
I0
sI95
I0
sI96
I1
sI97
I1
sI98
I1
sI99
I1
sI100
I0
sI101
I1
sI102
I1
sI103
I1
sI104
I1
sI105
I1
sI106
I1
sI107
I1
sI108
I0
sI109
I0
sI110
I0
sI111
I1
sI112
I1
sI113
I1
sI114
I1
sI115
I1
sI116
I1
sI117
I1
sI118
I1
sI119
I0
sI120
I1
sI121
I1
sI122
I0
sI123
I1
sI124
I1
sI125
I1
sI126
I0
sI127
I1
sI128
I1
sI129
I1
sI130
I0
sI131
I1
sI132
I1
sI133
I0
sI134
I0
sI135
I0
sI136
I0
sI137
I1
sI138
I1
sI139
I1
sI140
I1
sI141
I1
sI142
I1
sI143
I1
sI144
I1
sI145
I0
sI146
I1
sI147
I1
sI148
I1
sI149
I0
sI150
I0
sI151
I0
sI152
I1
sI153
I0
sI154
I0
sI155
I1
sI156
I1
sI157
I1
sI158
I1
sI159
I0
sI160
I1
sI161
I1
sI162
I1
sI163
I1
sI164
I1
sI165
I0
sI166
I1
sI167
I0
sI168
I1
sI169
I0
sI170
I1
sI171
I0
sI172
I0
sI173
I0
sI174
I0
sI175
I1
sI176
I1
sI177
I1
sI178
I0
sI179
I1
sI180
I1
sI181
I1
sI182
I0
sI183
I1
sI184
I1
sI185
I0
sI186
I0
sI187
I0
sI188
I1
sI189
I1
sI190
I0
sI191
I1
sI192
I1
sI193
I1
sI194
I1
sI195
I0
sI196
I0
sI197
I1
sI198
I1
sI199
I1
sI200
I0
sI201
I0
sI202
I0
sI203
I0
sI204
I1
sI205
I0
sI206
I1
sI207
I0
sI208
I1
sI209
I1
sI210
I1
sI211
I0
sI212
I0
sI213
I0
sI214
I0
sI215
I1
sI216
I1
sI217
I0
sI218
I0
sI219
I1
sI220
I1
sI221
I0
sI222
I1
sI223
I0
sI224
I1
sI225
I1
sI226
I0
sI227
I0
sI228
I0
sI229
I0
sI230
I1
sI231
I0
sI232
I1
sI233
I1
sI234
I0
sI235
I1
sI236
I1
sI237
I1
sI238
I1
sI239
I0
sI240
I0
sI241
I1
sI242
I1
sI243
I1
sI244
I1
sI245
I1
sI246
I1
sI247
I1
sI248
I1
sI249
I1
sI250
I1
sI251
I0
sI252
I1
sI253
I1
sI254
I1
sI255
I0
ssI18
(dp22
I0
I1
sI1
I1
sI2
I1
sI3
I1
sI4
I1
sI5
I1
sI6
I1
sI7
I1
sI8
I0
sI9
I0
sI10
I0
sI11
I0
sI12
I1
sI13
I0
sI14
I1
sI15
I1
sI16
I1
sI17
I1
sI18
I1
sI19
I1
sI20
I0
sI21
I1
sI22
I1
sI23
I1
sI24
I0
sI25
I1
sI26
I1
sI27
I0
sI28
I1
sI29
I1
sI30
I1
sI31
I1
sI32
I1
sI33
I0
sI34
I0
sI35
I1
sI36
I1
sI37
I1
sI38
I1
sI39
I1
sI40
I0
sI41
I0
sI42
I0
sI43
I1
sI44
I0
sI45
I1
sI46
I1
sI47
I1
sI48
I0
sI49
I1
sI50
I0
sI51
I0
sI52
I1
sI53
I0
sI54
I1
sI55
I1
sI56
I1
sI57
I0
sI58
I0
sI59
I1
sI60
I1
sI61
I1
sI62
I1
sI63
I0
sI64
I0
sI65
I1
sI66
I1
sI67
I1
sI68
I1
sI69
I0
sI70
I1
sI71
I1
sI72
I0
sI73
I1
sI74
I0
sI75
I1
sI76
I1
sI77
I1
sI78
I0
sI79
I0
sI80
I0
sI81
I0
sI82
I1
sI83
I1
sI84
I1
sI85
I1
sI86
I1
sI87
I1
sI88
I1
sI89
I1
sI90
I1
sI91
I0
sI92
I0
sI93
I0
sI94
I0
sI95
I0
sI96
I1
sI97
I1
sI98
I1
sI99
I1
sI100
I0
sI101
I1
sI102
I1
sI103
I1
sI104
I1
sI105
I1
sI106
I1
sI107
I1
sI108
I0
sI109
I0
sI110
I0
sI111
I1
sI112
I1
sI113
I1
sI114
I1
sI115
I1
sI116
I1
sI117
I1
sI118
I1
sI119
I0
sI120
I1
sI121
I1
sI122
I0
sI123
I1
sI124
I1
sI125
I1
sI126
I0
sI127
I1
sI128
I1
sI129
I1
sI130
I0
sI131
I1
sI132
I1
sI133
I0
sI134
I0
sI135
I0
sI136
I0
sI137
I1
sI138
I1
sI139
I1
sI140
I1
sI141
I1
sI142
I1
sI143
I1
sI144
I1
sI145
I0
sI146
I1
sI147
I1
sI148
I1
sI149
I0
sI150
I0
sI151
I0
sI152
I1
sI153
I0
sI154
I0
sI155
I1
sI156
I1
sI157
I1
sI158
I1
sI159
I0
sI160
I1
sI161
I1
sI162
I1
sI163
I1
sI164
I1
sI165
I0
sI166
I1
sI167
I0
sI168
I1
sI169
I0
sI170
I1
sI171
I0
sI172
I0
sI173
I0
sI174
I0
sI175
I1
sI176
I1
sI177
I1
sI178
I0
sI179
I1
sI180
I1
sI181
I1
sI182
I0
sI183
I1
sI184
I1
sI185
I0
sI186
I0
sI187
I0
sI188
I1
sI189
I1
sI190
I0
sI191
I1
sI192
I1
sI193
I1
sI194
I1
sI195
I0
sI196
I0
sI197
I1
sI198
I1
sI199
I1
sI200
I0
sI201
I0
sI202
I0
sI203
I0
sI204
I1
sI205
I0
sI206
I1
sI207
I0
sI208
I1
sI209
I1
sI210
I1
sI211
I0
sI212
I0
sI213
I0
sI214
I0
sI215
I1
sI216
I1
sI217
I0
sI218
I0
sI219
I1
sI220
I1
sI221
I0
sI222
I1
sI223
I0
sI224
I1
sI225
I1
sI226
I0
sI227
I0
sI228
I0
sI229
I0
sI230
I1
sI231
I0
sI232
I1
sI233
I1
sI234
I0
sI235
I1
sI236
I1
sI237
I1
sI238
I1
sI239
I0
sI240
I0
sI241
I1
sI242
I1
sI243
I1
sI244
I1
sI245
I1
sI246
I1
sI247
I1
sI248
I1
sI249
I1
sI250
I1
sI251
I0
sI252
I1
sI253
I1
sI254
I1
sI255
I0
ssI19
(dp23
I0
I1
sI1
I1
sI2
I1
sI3
I1
sI4
I1
sI5
I1
sI6
I1
sI7
I1
sI8
I0
sI9
I0
sI10
I0
sI11
I0
sI12
I1
sI13
I0
sI14
I1
sI15
I1
sI16
I1
sI17
I1
sI18
I1
sI19
I1
sI20
I0
sI21
I1
sI22
I1
sI23
I1
sI24
I0
sI25
I1
sI26
I1
sI27
I0
sI28
I1
sI29
I1
sI30
I1
sI31
I1
sI32
I1
sI33
I0
sI34
I0
sI35
I1
sI36
I1
sI37
I1
sI38
I1
sI39
I1
sI40
I0
sI41
I0
sI42
I0
sI43
I1
sI44
I0
sI45
I1
sI46
I1
sI47
I1
sI48
I0
sI49
I1
sI50
I0
sI51
I0
sI52
I1
sI53
I0
sI54
I1
sI55
I1
sI56
I1
sI57
I0
sI58
I0
sI59
I1
sI60
I1
sI61
I1
sI62
I1
sI63
I0
sI64
I0
sI65
I1
sI66
I1
sI67
I1
sI68
I1
sI69
I0
sI70
I1
sI71
I1
sI72
I0
sI73
I1
sI74
I0
sI75
I1
sI76
I1
sI77
I1
sI78
I0
sI79
I0
sI80
I0
sI81
I0
sI82
I1
sI83
I1
sI84
I1
sI85
I1
sI86
I1
sI87
I1
sI88
I1
sI89
I1
sI90
I1
sI91
I0
sI92
I0
sI93
I0
sI94
I0
sI95
I0
sI96
I1
sI97
I1
sI98
I1
sI99
I1
sI100
I0
sI101
I1
sI102
I1
sI103
I1
sI104
I1
sI105
I1
sI106
I1
sI107
I1
sI108
I0
sI109
I0
sI110
I0
sI111
I1
sI112
I1
sI113
I1
sI114
I1
sI115
I1
sI116
I1
sI117
I1
sI118
I1
sI119
I0
sI120
I1
sI121
I1
sI122
I0
sI123
I1
sI124
I1
sI125
I1
sI126
I0
sI127
I1
sI128
I1
sI129
I1
sI130
I0
sI131
I1
sI132
I1
sI133
I0
sI134
I0
sI135
I0
sI136
I0
sI137
I1
sI138
I1
sI139
I1
sI140
I1
sI141
I1
sI142
I1
sI143
I1
sI144
I1
sI145
I0
sI146
I1
sI147
I1
sI148
I1
sI149
I0
sI150
I0
sI151
I0
sI152
I1
sI153
I0
sI154
I0
sI155
I1
sI156
I1
sI157
I1
sI158
I1
sI159
I0
sI160
I1
sI161
I1
sI162
I1
sI163
I1
sI164
I1
sI165
I0
sI166
I1
sI167
I0
sI168
I1
sI169
I0
sI170
I1
sI171
I0
sI172
I0
sI173
I0
sI174
I0
sI175
I1
sI176
I1
sI177
I1
sI178
I0
sI179
I1
sI180
I1
sI181
I1
sI182
I0
sI183
I1
sI184
I1
sI185
I0
sI186
I0
sI187
I0
sI188
I1
sI189
I1
sI190
I0
sI191
I1
sI192
I1
sI193
I1
sI194
I1
sI195
I0
sI196
I0
sI197
I1
sI198
I1
sI199
I1
sI200
I0
sI201
I0
sI202
I0
sI203
I0
sI204
I1
sI205
I0
sI206
I1
sI207
I0
sI208
I1
sI209
I1
sI210
I1
sI211
I0
sI212
I0
sI213
I0
sI214
I0
sI215
I1
sI216
I1
sI217
I0
sI218
I0
sI219
I1
sI220
I1
sI221
I0
sI222
I1
sI223
I0
sI224
I1
sI225
I1
sI226
I0
sI227
I0
sI228
I0
sI229
I0
sI230
I1
sI231
I0
sI232
I1
sI233
I1
sI234
I0
sI235
I1
sI236
I1
sI237
I1
sI238
I1
sI239
I0
sI240
I0
sI241
I1
sI242
I1
sI243
I1
sI244
I1
sI245
I1
sI246
I1
sI247
I1
sI248
I1
sI249
I1
sI250
I1
sI251
I0
sI252
I1
sI253
I1
sI254
I1
sI255
I0
ssI20
(dp24
I0
I1
sI1
I1
sI2
I1
sI3
I1
sI4
I1
sI5
I1
sI6
I1
sI7
I1
sI8
I0
sI9
I0
sI10
I0
sI11
I0
sI12
I1
sI13
I0
sI14
I1
sI15
I1
sI16
I1
sI17
I1
sI18
I1
sI19
I1
sI20
I0
sI21
I1
sI22
I1
sI23
I1
sI24
I0
sI25
I1
sI26
I1
sI27
I0
sI28
I1
sI29
I1
sI30
I1
sI31
I1
sI32
I1
sI33
I0
sI34
I0
sI35
I1
sI36
I1
sI37
I1
sI38
I1
sI39
I1
sI40
I0
sI41
I0
sI42
I0
sI43
I1
sI44
I0
sI45
I1
sI46
I1
sI47
I1
sI48
I0
sI49
I1
sI50
I0
sI51
I0
sI52
I1
sI53
I0
sI54
I1
sI55
I1
sI56
I1
sI57
I0
sI58
I0
sI59
I1
sI60
I1
sI61
I1
sI62
I1
sI63
I0
sI64
I0
sI65
I1
sI66
I1
sI67
I1
sI68
I1
sI69
I0
sI70
I1
sI71
I1
sI72
I0
sI73
I1
sI74
I0
sI75
I1
sI76
I1
sI77
I1
sI78
I0
sI79
I0
sI80
I0
sI81
I0
sI82
I1
sI83
I1
sI84
I1
sI85
I1
sI86
I1
sI87
I1
sI88
I1
sI89
I1
sI90
I1
sI91
I0
sI92
I0
sI93
I0
sI94
I0
sI95
I0
sI96
I1
sI97
I1
sI98
I1
sI99
I1
sI100
I0
sI101
I1
sI102
I1
sI103
I1
sI104
I1
sI105
I1
sI106
I1
sI107
I1
sI108
I0
sI109
I0
sI110
I0
sI111
I1
sI112
I1
sI113
I1
sI114
I1
sI115
I1
sI116
I1
sI117
I1
sI118
I1
sI119
I0
sI120
I1
sI121
I1
sI122
I0
sI123
I1
sI124
I1
sI125
I1
sI126
I0
sI127
I1
sI128
I1
sI129
I1
sI130
I0
sI131
I1
sI132
I1
sI133
I0
sI134
I0
sI135
I0
sI136
I0
sI137
I1
sI138
I1
sI139
I1
sI140
I1
sI141
I1
sI142
I1
sI143
I1
sI144
I1
sI145
I0
sI146
I1
sI147
I1
sI148
I1
sI149
I0
sI150
I0
sI151
I0
sI152
I1
sI153
I0
sI154
I0
sI155
I1
sI156
I1
sI157
I1
sI158
I1
sI159
I0
sI160
I1
sI161
I1
sI162
I1
sI163
I1
sI164
I1
sI165
I0
sI166
I1
sI167
I0
sI168
I1
sI169
I0
sI170
I1
sI171
I0
sI172
I0
sI173
I0
sI174
I0
sI175
I1
sI176
I1
sI177
I1
sI178
I0
sI179
I1
sI180
I1
sI181
I1
sI182
I0
sI183
I1
sI184
I1
sI185
I0
sI186
I0
sI187
I0
sI188
I1
sI189
I1
sI190
I0
sI191
I1
sI192
I1
sI193
I1
sI194
I1
sI195
I0
sI196
I0
sI197
I1
sI198
I1
sI199
I1
sI200
I0
sI201
I0
sI202
I0
sI203
I0
sI204
I1
sI205
I0
sI206
I1
sI207
I0
sI208
I1
sI209
I1
sI210
I1
sI211
I0
sI212
I0
sI213
I0
sI214
I0
sI215
I1
sI216
I1
sI217
I0
sI218
I0
sI219
I1
sI220
I1
sI221
I0
sI222
I1
sI223
I0
sI224
I1
sI225
I1
sI226
I0
sI227
I0
sI228
I0
sI229
I0
sI230
I1
sI231
I0
sI232
I1
sI233
I1
sI234
I0
sI235
I1
sI236
I1
sI237
I1
sI238
I1
sI239
I0
sI240
I0
sI241
I1
sI242
I1
sI243
I1
sI244
I1
sI245
I1
sI246
I1
sI247
I1
sI248
I1
sI249
I1
sI250
I1
sI251
I0
sI252
I1
sI253
I1
sI254
I1
sI255
I0
ssI21
(dp25
I0
I1
sI1
I1
sI2
I1
sI3
I1
sI4
I1
sI5
I1
sI6
I1
sI7
I1
sI8
I0
sI9
I0
sI10
I0
sI11
I0
sI12
I1
sI13
I0
sI14
I1
sI15
I1
sI16
I1
sI17
I1
sI18
I1
sI19
I1
sI20
I0
sI21
I1
sI22
I1
sI23
I1
sI24
I0
sI25
I1
sI26
I1
sI27
I0
sI28
I1
sI29
I1
sI30
I1
sI31
I1
sI32
I1
sI33
I0
sI34
I0
sI35
I1
sI36
I1
sI37
I1
sI38
I1
sI39
I1
sI40
I0
sI41
I0
sI42
I0
sI43
I1
sI44
I0
sI45
I1
sI46
I1
sI47
I1
sI48
I0
sI49
I1
sI50
I0
sI51
I0
sI52
I1
sI53
I0
sI54
I1
sI55
I1
sI56
I1
sI57
I0
sI58
I0
sI59
I1
sI60
I1
sI61
I1
sI62
I1
sI63
I0
sI64
I0
sI65
I1
sI66
I1
sI67
I1
sI68
I1
sI69
I0
sI70
I1
sI71
I1
sI72
I0
sI73
I1
sI74
I0
sI75
I1
sI76
I1
sI77
I1
sI78
I0
sI79
I0
sI80
I0
sI81
I0
sI82
I1
sI83
I1
sI84
I1
sI85
I1
sI86
I1
sI87
I1
sI88
I1
sI89
I1
sI90
I1
sI91
I0
sI92
I0
sI93
I0
sI94
I0
sI95
I0
sI96
I1
sI97
I1
sI98
I1
sI99
I1
sI100
I0
sI101
I1
sI102
I1
sI103
I1
sI104
I1
sI105
I1
sI106
I1
sI107
I1
sI108
I0
sI109
I0
sI110
I0
sI111
I1
sI112
I1
sI113
I1
sI114
I1
sI115
I1
sI116
I1
sI117
I1
sI118
I1
sI119
I0
sI120
I1
sI121
I1
sI122
I0
sI123
I1
sI124
I1
sI125
I1
sI126
I0
sI127
I1
sI128
I1
sI129
I1
sI130
I0
sI131
I1
sI132
I1
sI133
I0
sI134
I0
sI135
I0
sI136
I0
sI137
I1
sI138
I1
sI139
I1
sI140
I1
sI141
I1
sI142
I1
sI143
I1
sI144
I1
sI145
I0
sI146
I1
sI147
I1
sI148
I1
sI149
I0
sI150
I0
sI151
I0
sI152
I1
sI153
I0
sI154
I0
sI155
I1
sI156
I1
sI157
I1
sI158
I1
sI159
I0
sI160
I1
sI161
I1
sI162
I1
sI163
I1
sI164
I1
sI165
I0
sI166
I1
sI167
I0
sI168
I1
sI169
I0
sI170
I1
sI171
I0
sI172
I0
sI173
I0
sI174
I0
sI175
I1
sI176
I1
sI177
I1
sI178
I0
sI179
I1
sI180
I1
sI181
I1
sI182
I0
sI183
I1
sI184
I1
sI185
I0
sI186
I0
sI187
I0
sI188
I1
sI189
I1
sI190
I0
sI191
I1
sI192
I1
sI193
I1
sI194
I1
sI195
I0
sI196
I0
sI197
I1
sI198
I1
sI199
I1
sI200
I0
sI201
I0
sI202
I0
sI203
I0
sI204
I1
sI205
I0
sI206
I1
sI207
I0
sI208
I1
sI209
I1
sI210
I1
sI211
I0
sI212
I0
sI213
I0
sI214
I0
sI215
I1
sI216
I1
sI217
I0
sI218
I0
sI219
I1
sI220
I1
sI221
I0
sI222
I1
sI223
I0
sI224
I1
sI225
I1
sI226
I0
sI227
I0
sI228
I0
sI229
I0
sI230
I1
sI231
I0
sI232
I1
sI233
I1
sI234
I0
sI235
I1
sI236
I1
sI237
I1
sI238
I1
sI239
I0
sI240
I0
sI241
I1
sI242
I1
sI243
I1
sI244
I1
sI245
I1
sI246
I1
sI247
I1
sI248
I1
sI249
I1
sI250
I1
sI251
I0
sI252
I1
sI253
I1
sI254
I1
sI255
I0
ssI22
(dp26
I0
I1
sI1
I1
sI2
I1
sI3
I1
sI4
I1
sI5
I1
sI6
I1
sI7
I1
sI8
I0
sI9
I0
sI10
I0
sI11
I0
sI12
I1
sI13
I0
sI14
I1
sI15
I1
sI16
I1
sI17
I1
sI18
I1
sI19
I1
sI20
I0
sI21
I1
sI22
I1
sI23
I1
sI24
I0
sI25
I1
sI26
I1
sI27
I0
sI28
I1
sI29
I1
sI30
I1
sI31
I1
sI32
I1
sI33
I0
sI34
I0
sI35
I1
sI36
I1
sI37
I1
sI38
I1
sI39
I1
sI40
I0
sI41
I0
sI42
I0
sI43
I1
sI44
I0
sI45
I1
sI46
I1
sI47
I1
sI48
I0
sI49
I1
sI50
I0
sI51
I0
sI52
I1
sI53
I0
sI54
I1
sI55
I1
sI56
I1
sI57
I0
sI58
I0
sI59
I1
sI60
I1
sI61
I1
sI62
I1
sI63
I0
sI64
I0
sI65
I1
sI66
I1
sI67
I1
sI68
I1
sI69
I0
sI70
I1
sI71
I1
sI72
I0
sI73
I1
sI74
I0
sI75
I1
sI76
I1
sI77
I1
sI78
I0
sI79
I0
sI80
I0
sI81
I0
sI82
I1
sI83
I1
sI84
I1
sI85
I1
sI86
I1
sI87
I1
sI88
I1
sI89
I1
sI90
I1
sI91
I0
sI92
I0
sI93
I0
sI94
I0
sI95
I0
sI96
I1
sI97
I1
sI98
I1
sI99
I1
sI100
I0
sI101
I1
sI102
I1
sI103
I1
sI104
I1
sI105
I1
sI106
I1
sI107
I1
sI108
I0
sI109
I0
sI110
I0
sI111
I1
sI112
I1
sI113
I1
sI114
I1
sI115
I1
sI116
I1
sI117
I1
sI118
I1
sI119
I0
sI120
I1
sI121
I1
sI122
I0
sI123
I1
sI124
I1
sI125
I1
sI126
I0
sI127
I1
sI128
I1
sI129
I1
sI130
I0
sI131
I1
sI132
I1
sI133
I0
sI134
I0
sI135
I0
sI136
I0
sI137
I1
sI138
I1
sI139
I1
sI140
I1
sI141
I1
sI142
I1
sI143
I1
sI144
I1
sI145
I0
sI146
I1
sI147
I1
sI148
I1
sI149
I0
sI150
I0
sI151
I0
sI152
I1
sI153
I0
sI154
I0
sI155
I1
sI156
I1
sI157
I1
sI158
I1
sI159
I0
sI160
I1
sI161
I1
sI162
I1
sI163
I1
sI164
I1
sI165
I0
sI166
I1
sI167
I0
sI168
I1
sI169
I0
sI170
I1
sI171
I0
sI172
I0
sI173
I0
sI174
I0
sI175
I1
sI176
I1
sI177
I1
sI178
I0
sI179
I1
sI180
I1
sI181
I1
sI182
I0
sI183
I1
sI184
I1
sI185
I0
sI186
I0
sI187
I0
sI188
I1
sI189
I1
sI190
I0
sI191
I1
sI192
I1
sI193
I1
sI194
I1
sI195
I0
sI196
I0
sI197
I1
sI198
I1
sI199
I1
sI200
I0
sI201
I0
sI202
I0
sI203
I0
sI204
I1
sI205
I0
sI206
I1
sI207
I0
sI208
I1
sI209
I1
sI210
I1
sI211
I0
sI212
I0
sI213
I0
sI214
I0
sI215
I1
sI216
I1
sI217
I0
sI218
I0
sI219
I1
sI220
I1
sI221
I0
sI222
I1
sI223
I0
sI224
I1
sI225
I1
sI226
I0
sI227
I0
sI228
I0
sI229
I0
sI230
I1
sI231
I0
sI232
I1
sI233
I1
sI234
I0
sI235
I1
sI236
I1
sI237
I1
sI238
I1
sI239
I0
sI240
I0
sI241
I1
sI242
I1
sI243
I1
sI244
I1
sI245
I1
sI246
I1
sI247
I1
sI248
I1
sI249
I1
sI250
I1
sI251
I0
sI252
I1
sI253
I1
sI254
I1
sI255
I0
ssI23
(dp27
I0
I1
sI1
I1
sI2
I1
sI3
I1
sI4
I1
sI5
I1
sI6
I1
sI7
I1
sI8
I0
sI9
I0
sI10
I0
sI11
I0
sI12
I1
sI13
I0
sI14
I1
sI15
I1
sI16
I1
sI17
I1
sI18
I1
sI19
I1
sI20
I0
sI21
I1
sI22
I1
sI23
I1
sI24
I0
sI25
I1
sI26
I1
sI27
I0
sI28
I1
sI29
I1
sI30
I1
sI31
I1
sI32
I1
sI33
I0
sI34
I0
sI35
I1
sI36
I1
sI37
I1
sI38
I1
sI39
I1
sI40
I0
sI41
I0
sI42
I0
sI43
I1
sI44
I0
sI45
I1
sI46
I1
sI47
I1
sI48
I0
sI49
I1
sI50
I0
sI51
I0
sI52
I1
sI53
I0
sI54
I1
sI55
I1
sI56
I1
sI57
I0
sI58
I0
sI59
I1
sI60
I1
sI61
I1
sI62
I1
sI63
I0
sI64
I0
sI65
I1
sI66
I1
sI67
I1
sI68
I1
sI69
I0
sI70
I1
sI71
I1
sI72
I0
sI73
I1
sI74
I0
sI75
I1
sI76
I1
sI77
I1
sI78
I0
sI79
I0
sI80
I0
sI81
I0
sI82
I1
sI83
I1
sI84
I1
sI85
I1
sI86
I1
sI87
I1
sI88
I1
sI89
I1
sI90
I1
sI91
I0
sI92
I0
sI93
I0
sI94
I0
sI95
I0
sI96
I1
sI97
I1
sI98
I1
sI99
I1
sI100
I0
sI101
I1
sI102
I1
sI103
I1
sI104
I1
sI105
I1
sI106
I1
sI107
I1
sI108
I0
sI109
I0
sI110
I0
sI111
I1
sI112
I1
sI113
I1
sI114
I1
sI115
I1
sI116
I1
sI117
I1
sI118
I1
sI119
I0
sI120
I1
sI121
I1
sI122
I0
sI123
I1
sI124
I1
sI125
I1
sI126
I0
sI127
I1
sI128
I1
sI129
I1
sI130
I0
sI131
I1
sI132
I1
sI133
I0
sI134
I0
sI135
I0
sI136
I0
sI137
I1
sI138
I1
sI139
I1
sI140
I1
sI141
I1
sI142
I1
sI143
I1
sI144
I1
sI145
I0
sI146
I1
sI147
I1
sI148
I1
sI149
I0
sI150
I0
sI151
I0
sI152
I1
sI153
I0
sI154
I0
sI155
I1
sI156
I1
sI157
I1
sI158
I1
sI159
I0
sI160
I1
sI161
I1
sI162
I1
sI163
I1
sI164
I1
sI165
I0
sI166
I1
sI167
I0
sI168
I1
sI169
I0
sI170
I1
sI171
I0
sI172
I0
sI173
I0
sI174
I0
sI175
I1
sI176
I1
sI177
I1
sI178
I0
sI179
I1
sI180
I1
sI181
I1
sI182
I0
sI183
I1
sI184
I1
sI185
I0
sI186
I0
sI187
I0
sI188
I1
sI189
I1
sI190
I0
sI191
I1
sI192
I1
sI193
I1
sI194
I1
sI195
I0
sI196
I0
sI197
I1
sI198
I1
sI199
I1
sI200
I0
sI201
I0
sI202
I0
sI203
I0
sI204
I1
sI205
I0
sI206
I1
sI207
I0
sI208
I1
sI209
I1
sI210
I1
sI211
I0
sI212
I0
sI213
I0
sI214
I0
sI215
I1
sI216
I1
sI217
I0
sI218
I0
sI219
I1
sI220
I1
sI221
I0
sI222
I1
sI223
I0
sI224
I1
sI225
I1
sI226
I0
sI227
I0
sI228
I0
sI229
I0
sI230
I1
sI231
I0
sI232
I1
sI233
I1
sI234
I0
sI235
I1
sI236
I1
sI237
I1
sI238
I1
sI239
I0
sI240
I0
sI241
I1
sI242
I1
sI243
I1
sI244
I1
sI245
I1
sI246
I1
sI247
I1
sI248
I1
sI249
I1
sI250
I1
sI251
I0
sI252
I1
sI253
I1
sI254
I1
sI255
I0
ssI24
(dp28
I0
I1
sI1
I1
sI2
I1
sI3
I1
sI4
I1
sI5
I1
sI6
I1
sI7
I1
sI8
I0
sI9
I0
sI10
I0
sI11
I0
sI12
I1
sI13
I0
sI14
I1
sI15
I1
sI16
I1
sI17
I1
sI18
I1
sI19
I1
sI20
I0
sI21
I1
sI22
I1
sI23
I1
sI24
I0
sI25
I1
sI26
I1
sI27
I0
sI28
I1
sI29
I1
sI30
I1
sI31
I1
sI32
I1
sI33
I0
sI34
I0
sI35
I1
sI36
I1
sI37
I1
sI38
I1
sI39
I1
sI40
I0
sI41
I0
sI42
I0
sI43
I1
sI44
I0
sI45
I1
sI46
I1
sI47
I1
sI48
I0
sI49
I1
sI50
I0
sI51
I0
sI52
I1
sI53
I0
sI54
I1
sI55
I1
sI56
I1
sI57
I0
sI58
I0
sI59
I1
sI60
I1
sI61
I1
sI62
I1
sI63
I0
sI64
I0
sI65
I1
sI66
I1
sI67
I1
sI68
I1
sI69
I0
sI70
I1
sI71
I1
sI72
I0
sI73
I1
sI74
I0
sI75
I1
sI76
I1
sI77
I1
sI78
I0
sI79
I0
sI80
I0
sI81
I0
sI82
I1
sI83
I1
sI84
I1
sI85
I1
sI86
I1
sI87
I1
sI88
I1
sI89
I1
sI90
I1
sI91
I0
sI92
I0
sI93
I0
sI94
I0
sI95
I0
sI96
I1
sI97
I1
sI98
I1
sI99
I1
sI100
I0
sI101
I1
sI102
I1
sI103
I1
sI104
I1
sI105
I1
sI106
I1
sI107
I1
sI108
I0
sI109
I0
sI110
I0
sI111
I1
sI112
I1
sI113
I1
sI114
I1
sI115
I1
sI116
I1
sI117
I1
sI118
I1
sI119
I0
sI120
I1
sI121
I1
sI122
I0
sI123
I1
sI124
I1
sI125
I1
sI126
I0
sI127
I1
sI128
I1
sI129
I1
sI130
I0
sI131
I1
sI132
I1
sI133
I0
sI134
I0
sI135
I0
sI136
I0
sI137
I1
sI138
I1
sI139
I1
sI140
I1
sI141
I1
sI142
I1
sI143
I1
sI144
I1
sI145
I0
sI146
I1
sI147
I1
sI148
I1
sI149
I0
sI150
I0
sI151
I0
sI152
I1
sI153
I0
sI154
I0
sI155
I1
sI156
I1
sI157
I1
sI158
I1
sI159
I0
sI160
I1
sI161
I1
sI162
I1
sI163
I1
sI164
I1
sI165
I0
sI166
I1
sI167
I0
sI168
I1
sI169
I0
sI170
I1
sI171
I0
sI172
I0
sI173
I0
sI174
I0
sI175
I1
sI176
I1
sI177
I1
sI178
I0
sI179
I1
sI180
I1
sI181
I1
sI182
I0
sI183
I1
sI184
I1
sI185
I0
sI186
I0
sI187
I0
sI188
I1
sI189
I1
sI190
I0
sI191
I1
sI192
I1
sI193
I1
sI194
I1
sI195
I0
sI196
I0
sI197
I1
sI198
I1
sI199
I1
sI200
I0
sI201
I0
sI202
I0
sI203
I0
sI204
I1
sI205
I0
sI206
I1
sI207
I0
sI208
I1
sI209
I1
sI210
I1
sI211
I0
sI212
I0
sI213
I0
sI214
I0
sI215
I1
sI216
I1
sI217
I0
sI218
I0
sI219
I1
sI220
I1
sI221
I0
sI222
I1
sI223
I0
sI224
I1
sI225
I1
sI226
I0
sI227
I0
sI228
I0
sI229
I0
sI230
I1
sI231
I0
sI232
I1
sI233
I1
sI234
I0
sI235
I1
sI236
I1
sI237
I1
sI238
I1
sI239
I0
sI240
I0
sI241
I1
sI242
I1
sI243
I1
sI244
I1
sI245
I1
sI246
I1
sI247
I1
sI248
I1
sI249
I1
sI250
I1
sI251
I0
sI252
I1
sI253
I1
sI254
I1
sI255
I0
ssI25
(dp29
I0
I1
sI1
I1
sI2
I1
sI3
I1
sI4
I1
sI5
I1
sI6
I1
sI7
I1
sI8
I0
sI9
I0
sI10
I0
sI11
I0
sI12
I1
sI13
I0
sI14
I1
sI15
I1
sI16
I1
sI17
I1
sI18
I1
sI19
I1
sI20
I0
sI21
I1
sI22
I1
sI23
I1
sI24
I0
sI25
I1
sI26
I1
sI27
I0
sI28
I1
sI29
I1
sI30
I1
sI31
I1
sI32
I1
sI33
I0
sI34
I0
sI35
I1
sI36
I1
sI37
I1
sI38
I1
sI39
I1
sI40
I0
sI41
I0
sI42
I0
sI43
I1
sI44
I0
sI45
I1
sI46
I1
sI47
I1
sI48
I0
sI49
I1
sI50
I0
sI51
I0
sI52
I1
sI53
I0
sI54
I1
sI55
I1
sI56
I1
sI57
I0
sI58
I0
sI59
I1
sI60
I1
sI61
I1
sI62
I1
sI63
I0
sI64
I0
sI65
I1
sI66
I1
sI67
I1
sI68
I1
sI69
I0
sI70
I1
sI71
I1
sI72
I0
sI73
I1
sI74
I0
sI75
I1
sI76
I1
sI77
I1
sI78
I0
sI79
I0
sI80
I0
sI81
I0
sI82
I1
sI83
I1
sI84
I1
sI85
I1
sI86
I1
sI87
I1
sI88
I1
sI89
I1
sI90
I1
sI91
I0
sI92
I0
sI93
I0
sI94
I0
sI95
I0
sI96
I1
sI97
I1
sI98
I1
sI99
I1
sI100
I0
sI101
I1
sI102
I1
sI103
I1
sI104
I1
sI105
I1
sI106
I1
sI107
I1
sI108
I0
sI109
I0
sI110
I0
sI111
I1
sI112
I1
sI113
I1
sI114
I1
sI115
I1
sI116
I1
sI117
I1
sI118
I1
sI119
I0
sI120
I1
sI121
I1
sI122
I0
sI123
I1
sI124
I1
sI125
I1
sI126
I0
sI127
I1
sI128
I1
sI129
I1
sI130
I0
sI131
I1
sI132
I1
sI133
I0
sI134
I0
sI135
I0
sI136
I0
sI137
I1
sI138
I1
sI139
I1
sI140
I1
sI141
I1
sI142
I1
sI143
I1
sI144
I1
sI145
I0
sI146
I1
sI147
I1
sI148
I1
sI149
I0
sI150
I0
sI151
I0
sI152
I1
sI153
I0
sI154
I0
sI155
I1
sI156
I1
sI157
I1
sI158
I1
sI159
I0
sI160
I1
sI161
I1
sI162
I1
sI163
I1
sI164
I1
sI165
I0
sI166
I1
sI167
I0
sI168
I1
sI169
I0
sI170
I1
sI171
I0
sI172
I0
sI173
I0
sI174
I0
sI175
I1
sI176
I1
sI177
I1
sI178
I0
sI179
I1
sI180
I1
sI181
I1
sI182
I0
sI183
I1
sI184
I1
sI185
I0
sI186
I0
sI187
I0
sI188
I1
sI189
I1
sI190
I0
sI191
I1
sI192
I1
sI193
I1
sI194
I1
sI195
I0
sI196
I0
sI197
I1
sI198
I1
sI199
I1
sI200
I0
sI201
I0
sI202
I0
sI203
I0
sI204
I1
sI205
I0
sI206
I1
sI207
I0
sI208
I1
sI209
I1
sI210
I1
sI211
I0
sI212
I0
sI213
I0
sI214
I0
sI215
I1
sI216
I1
sI217
I0
sI218
I0
sI219
I1
sI220
I1
sI221
I0
sI222
I1
sI223
I0
sI224
I1
sI225
I1
sI226
I0
sI227
I0
sI228
I0
sI229
I0
sI230
I1
sI231
I0
sI232
I1
sI233
I1
sI234
I0
sI235
I1
sI236
I1
sI237
I1
sI238
I1
sI239
I0
sI240
I0
sI241
I1
sI242
I1
sI243
I1
sI244
I1
sI245
I1
sI246
I1
sI247
I1
sI248
I1
sI249
I1
sI250
I1
sI251
I0
sI252
I1
sI253
I1
sI254
I1
sI255
I0
ssI26
(dp30
I0
I1
sI1
I1
sI2
I1
sI3
I1
sI4
I1
sI5
I1
sI6
I1
sI7
I1
sI8
I0
sI9
I0
sI10
I0
sI11
I0
sI12
I1
sI13
I0
sI14
I1
sI15
I1
sI16
I1
sI17
I1
sI18
I1
sI19
I1
sI20
I0
sI21
I1
sI22
I1
sI23
I1
sI24
I0
sI25
I1
sI26
I1
sI27
I0
sI28
I1
sI29
I1
sI30
I1
sI31
I1
sI32
I1
sI33
I0
sI34
I0
sI35
I1
sI36
I1
sI37
I1
sI38
I1
sI39
I1
sI40
I0
sI41
I0
sI42
I0
sI43
I1
sI44
I0
sI45
I1
sI46
I1
sI47
I1
sI48
I0
sI49
I1
sI50
I0
sI51
I0
sI52
I1
sI53
I0
sI54
I1
sI55
I1
sI56
I1
sI57
I0
sI58
I0
sI59
I1
sI60
I1
sI61
I1
sI62
I1
sI63
I0
sI64
I0
sI65
I1
sI66
I1
sI67
I1
sI68
I1
sI69
I0
sI70
I1
sI71
I1
sI72
I0
sI73
I1
sI74
I0
sI75
I1
sI76
I1
sI77
I1
sI78
I0
sI79
I0
sI80
I0
sI81
I0
sI82
I1
sI83
I1
sI84
I1
sI85
I1
sI86
I1
sI87
I1
sI88
I1
sI89
I1
sI90
I1
sI91
I0
sI92
I0
sI93
I0
sI94
I0
sI95
I0
sI96
I1
sI97
I1
sI98
I1
sI99
I1
sI100
I0
sI101
I1
sI102
I1
sI103
I1
sI104
I1
sI105
I1
sI106
I1
sI107
I1
sI108
I0
sI109
I0
sI110
I0
sI111
I1
sI112
I1
sI113
I1
sI114
I1
sI115
I1
sI116
I1
sI117
I1
sI118
I1
sI119
I0
sI120
I1
sI121
I1
sI122
I0
sI123
I1
sI124
I1
sI125
I1
sI126
I0
sI127
I1
sI128
I1
sI129
I1
sI130
I0
sI131
I1
sI132
I1
sI133
I0
sI134
I0
sI135
I0
sI136
I0
sI137
I1
sI138
I1
sI139
I1
sI140
I1
sI141
I1
sI142
I1
sI143
I1
sI144
I1
sI145
I0
sI146
I1
sI147
I1
sI148
I1
sI149
I0
sI150
I0
sI151
I0
sI152
I1
sI153
I0
sI154
I0
sI155
I1
sI156
I1
sI157
I1
sI158
I1
sI159
I0
sI160
I1
sI161
I1
sI162
I1
sI163
I1
sI164
I1
sI165
I0
sI166
I1
sI167
I0
sI168
I1
sI169
I0
sI170
I1
sI171
I0
sI172
I0
sI173
I0
sI174
I0
sI175
I1
sI176
I1
sI177
I1
sI178
I0
sI179
I1
sI180
I1
sI181
I1
sI182
I0
sI183
I1
sI184
I1
sI185
I0
sI186
I0
sI187
I0
sI188
I1
sI189
I1
sI190
I0
sI191
I1
sI192
I1
sI193
I1
sI194
I1
sI195
I0
sI196
I0
sI197
I1
sI198
I1
sI199
I1
sI200
I0
sI201
I0
sI202
I0
sI203
I0
sI204
I1
sI205
I0
sI206
I1
sI207
I0
sI208
I1
sI209
I1
sI210
I1
sI211
I0
sI212
I0
sI213
I0
sI214
I0
sI215
I1
sI216
I1
sI217
I0
sI218
I0
sI219
I1
sI220
I1
sI221
I0
sI222
I1
sI223
I0
sI224
I1
sI225
I1
sI226
I0
sI227
I0
sI228
I0
sI229
I0
sI230
I1
sI231
I0
sI232
I1
sI233
I1
sI234
I0
sI235
I1
sI236
I1
sI237
I1
sI238
I1
sI239
I0
sI240
I0
sI241
I1
sI242
I1
sI243
I1
sI244
I1
sI245
I1
sI246
I1
sI247
I1
sI248
I1
sI249
I1
sI250
I1
sI251
I0
sI252
I1
sI253
I1
sI254
I1
sI255
I0
ssI27
(dp31
I0
I1
sI1
I1
sI2
I1
sI3
I1
sI4
I1
sI5
I1
sI6
I1
sI7
I1
sI8
I0
sI9
I0
sI10
I0
sI11
I0
sI12
I1
sI13
I0
sI14
I1
sI15
I1
sI16
I1
sI17
I1
sI18
I1
sI19
I1
sI20
I0
sI21
I1
sI22
I1
sI23
I1
sI24
I0
sI25
I1
sI26
I1
sI27
I0
sI28
I1
sI29
I1
sI30
I1
sI31
I1
sI32
I1
sI33
I0
sI34
I0
sI35
I1
sI36
I1
sI37
I1
sI38
I1
sI39
I1
sI40
I0
sI41
I0
sI42
I0
sI43
I1
sI44
I0
sI45
I1
sI46
I1
sI47
I1
sI48
I0
sI49
I1
sI50
I0
sI51
I0
sI52
I1
sI53
I0
sI54
I1
sI55
I1
sI56
I1
sI57
I0
sI58
I0
sI59
I1
sI60
I1
sI61
I1
sI62
I1
sI63
I0
sI64
I0
sI65
I1
sI66
I1
sI67
I1
sI68
I1
sI69
I0
sI70
I1
sI71
I1
sI72
I0
sI73
I1
sI74
I0
sI75
I1
sI76
I1
sI77
I1
sI78
I0
sI79
I0
sI80
I0
sI81
I0
sI82
I1
sI83
I1
sI84
I1
sI85
I1
sI86
I1
sI87
I1
sI88
I1
sI89
I1
sI90
I1
sI91
I0
sI92
I0
sI93
I0
sI94
I0
sI95
I0
sI96
I1
sI97
I1
sI98
I1
sI99
I1
sI100
I0
sI101
I1
sI102
I1
sI103
I1
sI104
I1
sI105
I1
sI106
I1
sI107
I1
sI108
I0
sI109
I0
sI110
I0
sI111
I1
sI112
I1
sI113
I1
sI114
I1
sI115
I1
sI116
I1
sI117
I1
sI118
I1
sI119
I0
sI120
I1
sI121
I1
sI122
I0
sI123
I1
sI124
I1
sI125
I1
sI126
I0
sI127
I1
sI128
I1
sI129
I1
sI130
I0
sI131
I1
sI132
I1
sI133
I0
sI134
I0
sI135
I0
sI136
I0
sI137
I1
sI138
I1
sI139
I1
sI140
I1
sI141
I1
sI142
I1
sI143
I1
sI144
I1
sI145
I0
sI146
I1
sI147
I1
sI148
I1
sI149
I0
sI150
I0
sI151
I0
sI152
I1
sI153
I0
sI154
I0
sI155
I1
sI156
I1
sI157
I1
sI158
I1
sI159
I0
sI160
I1
sI161
I1
sI162
I1
sI163
I1
sI164
I1
sI165
I0
sI166
I1
sI167
I0
sI168
I1
sI169
I0
sI170
I1
sI171
I0
sI172
I0
sI173
I0
sI174
I0
sI175
I1
sI176
I1
sI177
I1
sI178
I0
sI179
I1
sI180
I1
sI181
I1
sI182
I0
sI183
I1
sI184
I1
sI185
I0
sI186
I0
sI187
I0
sI188
I1
sI189
I1
sI190
I0
sI191
I1
sI192
I1
sI193
I1
sI194
I1
sI195
I0
sI196
I0
sI197
I1
sI198
I1
sI199
I1
sI200
I0
sI201
I0
sI202
I0
sI203
I0
sI204
I1
sI205
I0
sI206
I1
sI207
I0
sI208
I1
sI209
I1
sI210
I1
sI211
I0
sI212
I0
sI213
I0
sI214
I0
sI215
I1
sI216
I1
sI217
I0
sI218
I0
sI219
I1
sI220
I1
sI221
I0
sI222
I1
sI223
I0
sI224
I1
sI225
I1
sI226
I0
sI227
I0
sI228
I0
sI229
I0
sI230
I1
sI231
I0
sI232
I1
sI233
I1
sI234
I0
sI235
I1
sI236
I1
sI237
I1
sI238
I1
sI239
I0
sI240
I0
sI241
I1
sI242
I1
sI243
I1
sI244
I1
sI245
I1
sI246
I1
sI247
I1
sI248
I1
sI249
I1
sI250
I1
sI251
I0
sI252
I1
sI253
I1
sI254
I1
sI255
I0
ssI28
(dp32
I0
I1
sI1
I1
sI2
I1
sI3
I1
sI4
I1
sI5
I1
sI6
I1
sI7
I1
sI8
I0
sI9
I0
sI10
I0
sI11
I0
sI12
I1
sI13
I0
sI14
I1
sI15
I1
sI16
I1
sI17
I1
sI18
I1
sI19
I1
sI20
I0
sI21
I1
sI22
I1
sI23
I1
sI24
I0
sI25
I1
sI26
I1
sI27
I0
sI28
I1
sI29
I1
sI30
I1
sI31
I1
sI32
I1
sI33
I0
sI34
I0
sI35
I1
sI36
I1
sI37
I1
sI38
I1
sI39
I1
sI40
I0
sI41
I0
sI42
I0
sI43
I1
sI44
I0
sI45
I1
sI46
I1
sI47
I1
sI48
I0
sI49
I1
sI50
I0
sI51
I0
sI52
I1
sI53
I0
sI54
I1
sI55
I1
sI56
I1
sI57
I0
sI58
I0
sI59
I1
sI60
I1
sI61
I1
sI62
I1
sI63
I0
sI64
I0
sI65
I1
sI66
I1
sI67
I1
sI68
I1
sI69
I0
sI70
I1
sI71
I1
sI72
I0
sI73
I1
sI74
I0
sI75
I1
sI76
I1
sI77
I1
sI78
I0
sI79
I0
sI80
I0
sI81
I0
sI82
I1
sI83
I1
sI84
I1
sI85
I1
sI86
I1
sI87
I1
sI88
I1
sI89
I1
sI90
I1
sI91
I0
sI92
I0
sI93
I0
sI94
I0
sI95
I0
sI96
I1
sI97
I1
sI98
I1
sI99
I1
sI100
I0
sI101
I1
sI102
I1
sI103
I1
sI104
I1
sI105
I1
sI106
I1
sI107
I1
sI108
I0
sI109
I0
sI110
I0
sI111
I1
sI112
I1
sI113
I1
sI114
I1
sI115
I1
sI116
I1
sI117
I1
sI118
I1
sI119
I0
sI120
I1
sI121
I1
sI122
I0
sI123
I1
sI124
I1
sI125
I1
sI126
I0
sI127
I1
sI128
I1
sI129
I1
sI130
I0
sI131
I1
sI132
I1
sI133
I0
sI134
I0
sI135
I0
sI136
I0
sI137
I1
sI138
I1
sI139
I1
sI140
I1
sI141
I1
sI142
I1
sI143
I1
sI144
I1
sI145
I0
sI146
I1
sI147
I1
sI148
I1
sI149
I0
sI150
I0
sI151
I0
sI152
I1
sI153
I0
sI154
I0
sI155
I1
sI156
I1
sI157
I1
sI158
I1
sI159
I0
sI160
I1
sI161
I1
sI162
I1
sI163
I1
sI164
I1
sI165
I0
sI166
I1
sI167
I0
sI168
I1
sI169
I0
sI170
I1
sI171
I0
sI172
I0
sI173
I0
sI174
I0
sI175
I1
sI176
I1
sI177
I1
sI178
I0
sI179
I1
sI180
I1
sI181
I1
sI182
I0
sI183
I1
sI184
I1
sI185
I0
sI186
I0
sI187
I0
sI188
I1
sI189
I1
sI190
I0
sI191
I1
sI192
I1
sI193
I1
sI194
I1
sI195
I0
sI196
I0
sI197
I1
sI198
I1
sI199
I1
sI200
I0
sI201
I0
sI202
I0
sI203
I0
sI204
I1
sI205
I0
sI206
I1
sI207
I0
sI208
I1
sI209
I1
sI210
I1
sI211
I0
sI212
I0
sI213
I0
sI214
I0
sI215
I1
sI216
I1
sI217
I0
sI218
I0
sI219
I1
sI220
I1
sI221
I0
sI222
I1
sI223
I0
sI224
I1
sI225
I1
sI226
I0
sI227
I0
sI228
I0
sI229
I0
sI230
I1
sI231
I0
sI232
I1
sI233
I1
sI234
I0
sI235
I1
sI236
I1
sI237
I1
sI238
I1
sI239
I0
sI240
I0
sI241
I1
sI242
I1
sI243
I1
sI244
I1
sI245
I1
sI246
I1
sI247
I1
sI248
I1
sI249
I1
sI250
I1
sI251
I0
sI252
I1
sI253
I1
sI254
I1
sI255
I0
ssI29
(dp33
I0
I1
sI1
I1
sI2
I1
sI3
I1
sI4
I1
sI5
I1
sI6
I1
sI7
I1
sI8
I0
sI9
I0
sI10
I0
sI11
I0
sI12
I1
sI13
I0
sI14
I1
sI15
I1
sI16
I1
sI17
I1
sI18
I1
sI19
I1
sI20
I0
sI21
I1
sI22
I1
sI23
I1
sI24
I0
sI25
I1
sI26
I1
sI27
I0
sI28
I1
sI29
I1
sI30
I1
sI31
I1
sI32
I1
sI33
I0
sI34
I0
sI35
I1
sI36
I1
sI37
I1
sI38
I1
sI39
I1
sI40
I0
sI41
I0
sI42
I0
sI43
I1
sI44
I0
sI45
I1
sI46
I1
sI47
I1
sI48
I0
sI49
I1
sI50
I0
sI51
I0
sI52
I1
sI53
I0
sI54
I1
sI55
I1
sI56
I1
sI57
I0
sI58
I0
sI59
I1
sI60
I1
sI61
I1
sI62
I1
sI63
I0
sI64
I0
sI65
I1
sI66
I1
sI67
I1
sI68
I1
sI69
I0
sI70
I1
sI71
I1
sI72
I0
sI73
I1
sI74
I0
sI75
I1
sI76
I1
sI77
I1
sI78
I0
sI79
I0
sI80
I0
sI81
I0
sI82
I1
sI83
I1
sI84
I1
sI85
I1
sI86
I1
sI87
I1
sI88
I1
sI89
I1
sI90
I1
sI91
I0
sI92
I0
sI93
I0
sI94
I0
sI95
I0
sI96
I1
sI97
I1
sI98
I1
sI99
I1
sI100
I0
sI101
I1
sI102
I1
sI103
I1
sI104
I1
sI105
I1
sI106
I1
sI107
I1
sI108
I0
sI109
I0
sI110
I0
sI111
I1
sI112
I1
sI113
I1
sI114
I1
sI115
I1
sI116
I1
sI117
I1
sI118
I1
sI119
I0
sI120
I1
sI121
I1
sI122
I0
sI123
I1
sI124
I1
sI125
I1
sI126
I0
sI127
I1
sI128
I1
sI129
I1
sI130
I0
sI131
I1
sI132
I1
sI133
I0
sI134
I0
sI135
I0
sI136
I0
sI137
I1
sI138
I1
sI139
I1
sI140
I1
sI141
I1
sI142
I1
sI143
I1
sI144
I1
sI145
I0
sI146
I1
sI147
I1
sI148
I1
sI149
I0
sI150
I0
sI151
I0
sI152
I1
sI153
I0
sI154
I0
sI155
I1
sI156
I1
sI157
I1
sI158
I1
sI159
I0
sI160
I1
sI161
I1
sI162
I1
sI163
I1
sI164
I1
sI165
I0
sI166
I1
sI167
I0
sI168
I1
sI169
I0
sI170
I1
sI171
I0
sI172
I0
sI173
I0
sI174
I0
sI175
I1
sI176
I1
sI177
I1
sI178
I0
sI179
I1
sI180
I1
sI181
I1
sI182
I0
sI183
I1
sI184
I1
sI185
I0
sI186
I0
sI187
I0
sI188
I1
sI189
I1
sI190
I0
sI191
I1
sI192
I1
sI193
I1
sI194
I1
sI195
I0
sI196
I0
sI197
I1
sI198
I1
sI199
I1
sI200
I0
sI201
I0
sI202
I0
sI203
I0
sI204
I1
sI205
I0
sI206
I1
sI207
I0
sI208
I1
sI209
I1
sI210
I1
sI211
I0
sI212
I0
sI213
I0
sI214
I0
sI215
I1
sI216
I1
sI217
I0
sI218
I0
sI219
I1
sI220
I1
sI221
I0
sI222
I1
sI223
I0
sI224
I1
sI225
I1
sI226
I0
sI227
I0
sI228
I0
sI229
I0
sI230
I1
sI231
I0
sI232
I1
sI233
I1
sI234
I0
sI235
I1
sI236
I1
sI237
I1
sI238
I1
sI239
I0
sI240
I0
sI241
I1
sI242
I1
sI243
I1
sI244
I1
sI245
I1
sI246
I1
sI247
I1
sI248
I1
sI249
I1
sI250
I1
sI251
I0
sI252
I1
sI253
I1
sI254
I1
sI255
I0
ssI30
(dp34
I0
I1
sI1
I1
sI2
I1
sI3
I1
sI4
I1
sI5
I1
sI6
I1
sI7
I1
sI8
I0
sI9
I0
sI10
I0
sI11
I0
sI12
I1
sI13
I0
sI14
I1
sI15
I1
sI16
I1
sI17
I1
sI18
I1
sI19
I1
sI20
I0
sI21
I1
sI22
I1
sI23
I1
sI24
I0
sI25
I1
sI26
I1
sI27
I0
sI28
I1
sI29
I1
sI30
I1
sI31
I1
sI32
I1
sI33
I0
sI34
I0
sI35
I1
sI36
I1
sI37
I1
sI38
I1
sI39
I1
sI40
I0
sI41
I0
sI42
I0
sI43
I1
sI44
I0
sI45
I1
sI46
I1
sI47
I1
sI48
I0
sI49
I1
sI50
I0
sI51
I0
sI52
I1
sI53
I0
sI54
I1
sI55
I1
sI56
I1
sI57
I0
sI58
I0
sI59
I1
sI60
I1
sI61
I1
sI62
I1
sI63
I0
sI64
I0
sI65
I1
sI66
I1
sI67
I1
sI68
I1
sI69
I0
sI70
I1
sI71
I1
sI72
I0
sI73
I1
sI74
I0
sI75
I1
sI76
I1
sI77
I1
sI78
I0
sI79
I0
sI80
I0
sI81
I0
sI82
I1
sI83
I1
sI84
I1
sI85
I1
sI86
I1
sI87
I1
sI88
I1
sI89
I1
sI90
I1
sI91
I0
sI92
I0
sI93
I0
sI94
I0
sI95
I0
sI96
I1
sI97
I1
sI98
I1
sI99
I1
sI100
I0
sI101
I1
sI102
I1
sI103
I1
sI104
I1
sI105
I1
sI106
I1
sI107
I1
sI108
I0
sI109
I0
sI110
I0
sI111
I1
sI112
I1
sI113
I1
sI114
I1
sI115
I1
sI116
I1
sI117
I1
sI118
I1
sI119
I0
sI120
I1
sI121
I1
sI122
I0
sI123
I1
sI124
I1
sI125
I1
sI126
I0
sI127
I1
sI128
I1
sI129
I1
sI130
I0
sI131
I1
sI132
I1
sI133
I0
sI134
I0
sI135
I0
sI136
I0
sI137
I1
sI138
I1
sI139
I1
sI140
I1
sI141
I1
sI142
I1
sI143
I1
sI144
I1
sI145
I0
sI146
I1
sI147
I1
sI148
I1
sI149
I0
sI150
I0
sI151
I0
sI152
I1
sI153
I0
sI154
I0
sI155
I1
sI156
I1
sI157
I1
sI158
I1
sI159
I0
sI160
I1
sI161
I1
sI162
I1
sI163
I1
sI164
I1
sI165
I0
sI166
I1
sI167
I0
sI168
I1
sI169
I0
sI170
I1
sI171
I0
sI172
I0
sI173
I0
sI174
I0
sI175
I1
sI176
I1
sI177
I1
sI178
I0
sI179
I1
sI180
I1
sI181
I1
sI182
I0
sI183
I1
sI184
I1
sI185
I0
sI186
I0
sI187
I0
sI188
I1
sI189
I1
sI190
I0
sI191
I1
sI192
I1
sI193
I1
sI194
I1
sI195
I0
sI196
I0
sI197
I1
sI198
I1
sI199
I1
sI200
I0
sI201
I0
sI202
I0
sI203
I0
sI204
I1
sI205
I0
sI206
I1
sI207
I0
sI208
I1
sI209
I1
sI210
I1
sI211
I0
sI212
I0
sI213
I0
sI214
I0
sI215
I1
sI216
I1
sI217
I0
sI218
I0
sI219
I1
sI220
I1
sI221
I0
sI222
I1
sI223
I0
sI224
I1
sI225
I1
sI226
I0
sI227
I0
sI228
I0
sI229
I0
sI230
I1
sI231
I0
sI232
I1
sI233
I1
sI234
I0
sI235
I1
sI236
I1
sI237
I1
sI238
I1
sI239
I0
sI240
I0
sI241
I1
sI242
I1
sI243
I1
sI244
I1
sI245
I1
sI246
I1
sI247
I1
sI248
I1
sI249
I1
sI250
I1
sI251
I0
sI252
I1
sI253
I1
sI254
I1
sI255
I0
ssI31
(dp35
I0
I1
sI1
I1
sI2
I1
sI3
I1
sI4
I1
sI5
I1
sI6
I1
sI7
I1
sI8
I0
sI9
I0
sI10
I0
sI11
I0
sI12
I1
sI13
I0
sI14
I1
sI15
I1
sI16
I1
sI17
I1
sI18
I1
sI19
I1
sI20
I0
sI21
I1
sI22
I1
sI23
I1
sI24
I0
sI25
I1
sI26
I1
sI27
I0
sI28
I1
sI29
I1
sI30
I1
sI31
I1
sI32
I1
sI33
I0
sI34
I0
sI35
I1
sI36
I1
sI37
I1
sI38
I1
sI39
I1
sI40
I0
sI41
I0
sI42
I0
sI43
I1
sI44
I0
sI45
I1
sI46
I1
sI47
I1
sI48
I0
sI49
I1
sI50
I0
sI51
I0
sI52
I1
sI53
I0
sI54
I1
sI55
I1
sI56
I1
sI57
I0
sI58
I0
sI59
I1
sI60
I1
sI61
I1
sI62
I1
sI63
I0
sI64
I0
sI65
I1
sI66
I1
sI67
I1
sI68
I1
sI69
I0
sI70
I1
sI71
I1
sI72
I0
sI73
I1
sI74
I0
sI75
I1
sI76
I1
sI77
I1
sI78
I0
sI79
I0
sI80
I0
sI81
I0
sI82
I1
sI83
I1
sI84
I1
sI85
I1
sI86
I1
sI87
I1
sI88
I1
sI89
I1
sI90
I1
sI91
I0
sI92
I0
sI93
I0
sI94
I0
sI95
I0
sI96
I1
sI97
I1
sI98
I1
sI99
I1
sI100
I0
sI101
I1
sI102
I1
sI103
I1
sI104
I1
sI105
I1
sI106
I1
sI107
I1
sI108
I0
sI109
I0
sI110
I0
sI111
I1
sI112
I1
sI113
I1
sI114
I1
sI115
I1
sI116
I1
sI117
I1
sI118
I1
sI119
I0
sI120
I1
sI121
I1
sI122
I0
sI123
I1
sI124
I1
sI125
I1
sI126
I0
sI127
I1
sI128
I1
sI129
I1
sI130
I0
sI131
I1
sI132
I1
sI133
I0
sI134
I0
sI135
I0
sI136
I0
sI137
I1
sI138
I1
sI139
I1
sI140
I1
sI141
I1
sI142
I1
sI143
I1
sI144
I1
sI145
I0
sI146
I1
sI147
I1
sI148
I1
sI149
I0
sI150
I0
sI151
I0
sI152
I1
sI153
I0
sI154
I0
sI155
I1
sI156
I1
sI157
I1
sI158
I1
sI159
I0
sI160
I1
sI161
I1
sI162
I1
sI163
I1
sI164
I1
sI165
I0
sI166
I1
sI167
I0
sI168
I1
sI169
I0
sI170
I1
sI171
I0
sI172
I0
sI173
I0
sI174
I0
sI175
I1
sI176
I1
sI177
I1
sI178
I0
sI179
I1
sI180
I1
sI181
I1
sI182
I0
sI183
I1
sI184
I1
sI185
I0
sI186
I0
sI187
I0
sI188
I1
sI189
I1
sI190
I0
sI191
I1
sI192
I1
sI193
I1
sI194
I1
sI195
I0
sI196
I0
sI197
I1
sI198
I1
sI199
I1
sI200
I0
sI201
I0
sI202
I0
sI203
I0
sI204
I1
sI205
I0
sI206
I1
sI207
I0
sI208
I1
sI209
I1
sI210
I1
sI211
I0
sI212
I0
sI213
I0
sI214
I0
sI215
I1
sI216
I1
sI217
I0
sI218
I0
sI219
I1
sI220
I1
sI221
I0
sI222
I1
sI223
I0
sI224
I1
sI225
I1
sI226
I0
sI227
I0
sI228
I0
sI229
I0
sI230
I1
sI231
I0
sI232
I1
sI233
I1
sI234
I0
sI235
I1
sI236
I1
sI237
I1
sI238
I1
sI239
I0
sI240
I0
sI241
I1
sI242
I1
sI243
I1
sI244
I1
sI245
I1
sI246
I1
sI247
I1
sI248
I1
sI249
I1
sI250
I1
sI251
I0
sI252
I1
sI253
I1
sI254
I1
sI255
I0
ssI32
(dp36
I0
I1
sI1
I1
sI2
I1
sI3
I1
sI4
I1
sI5
I1
sI6
I1
sI7
I1
sI8
I0
sI9
I0
sI10
I0
sI11
I0
sI12
I1
sI13
I0
sI14
I1
sI15
I1
sI16
I1
sI17
I1
sI18
I1
sI19
I1
sI20
I0
sI21
I1
sI22
I1
sI23
I1
sI24
I0
sI25
I1
sI26
I1
sI27
I0
sI28
I1
sI29
I1
sI30
I1
sI31
I1
sI32
I1
sI33
I0
sI34
I0
sI35
I1
sI36
I1
sI37
I1
sI38
I1
sI39
I1
sI40
I0
sI41
I0
sI42
I0
sI43
I1
sI44
I0
sI45
I1
sI46
I1
sI47
I1
sI48
I0
sI49
I1
sI50
I0
sI51
I0
sI52
I1
sI53
I0
sI54
I1
sI55
I1
sI56
I1
sI57
I0
sI58
I0
sI59
I1
sI60
I1
sI61
I1
sI62
I1
sI63
I0
sI64
I0
sI65
I1
sI66
I1
sI67
I1
sI68
I1
sI69
I0
sI70
I1
sI71
I1
sI72
I0
sI73
I1
sI74
I0
sI75
I1
sI76
I1
sI77
I1
sI78
I0
sI79
I0
sI80
I0
sI81
I0
sI82
I1
sI83
I1
sI84
I1
sI85
I1
sI86
I1
sI87
I1
sI88
I1
sI89
I1
sI90
I1
sI91
I0
sI92
I0
sI93
I0
sI94
I0
sI95
I0
sI96
I1
sI97
I1
sI98
I1
sI99
I1
sI100
I0
sI101
I1
sI102
I1
sI103
I1
sI104
I1
sI105
I1
sI106
I1
sI107
I1
sI108
I0
sI109
I0
sI110
I0
sI111
I1
sI112
I1
sI113
I1
sI114
I1
sI115
I1
sI116
I1
sI117
I1
sI118
I1
sI119
I0
sI120
I1
sI121
I1
sI122
I0
sI123
I1
sI124
I1
sI125
I1
sI126
I0
sI127
I1
sI128
I1
sI129
I1
sI130
I0
sI131
I1
sI132
I1
sI133
I0
sI134
I0
sI135
I0
sI136
I0
sI137
I1
sI138
I1
sI139
I1
sI140
I1
sI141
I1
sI142
I1
sI143
I1
sI144
I1
sI145
I0
sI146
I1
sI147
I1
sI148
I1
sI149
I0
sI150
I0
sI151
I0
sI152
I1
sI153
I0
sI154
I0
sI155
I1
sI156
I1
sI157
I1
sI158
I1
sI159
I0
sI160
I1
sI161
I1
sI162
I1
sI163
I1
sI164
I1
sI165
I0
sI166
I1
sI167
I0
sI168
I1
sI169
I0
sI170
I1
sI171
I0
sI172
I0
sI173
I0
sI174
I0
sI175
I1
sI176
I1
sI177
I1
sI178
I0
sI179
I1
sI180
I1
sI181
I1
sI182
I0
sI183
I1
sI184
I1
sI185
I0
sI186
I0
sI187
I0
sI188
I1
sI189
I1
sI190
I0
sI191
I1
sI192
I1
sI193
I1
sI194
I1
sI195
I0
sI196
I0
sI197
I1
sI198
I1
sI199
I1
sI200
I0
sI201
I0
sI202
I0
sI203
I0
sI204
I1
sI205
I0
sI206
I1
sI207
I0
sI208
I1
sI209
I1
sI210
I1
sI211
I0
sI212
I0
sI213
I0
sI214
I0
sI215
I1
sI216
I1
sI217
I0
sI218
I0
sI219
I1
sI220
I1
sI221
I0
sI222
I1
sI223
I0
sI224
I1
sI225
I1
sI226
I0
sI227
I0
sI228
I0
sI229
I0
sI230
I1
sI231
I0
sI232
I1
sI233
I1
sI234
I0
sI235
I1
sI236
I1
sI237
I1
sI238
I1
sI239
I0
sI240
I0
sI241
I1
sI242
I1
sI243
I1
sI244
I1
sI245
I1
sI246
I1
sI247
I1
sI248
I1
sI249
I1
sI250
I1
sI251
I0
sI252
I1
sI253
I1
sI254
I1
sI255
I0
ssI33
(dp37
I0
I1
sI1
I1
sI2
I1
sI3
I1
sI4
I1
sI5
I1
sI6
I1
sI7
I1
sI8
I0
sI9
I0
sI10
I0
sI11
I0
sI12
I1
sI13
I0
sI14
I1
sI15
I1
sI16
I1
sI17
I1
sI18
I1
sI19
I1
sI20
I0
sI21
I1
sI22
I1
sI23
I1
sI24
I0
sI25
I1
sI26
I1
sI27
I0
sI28
I1
sI29
I1
sI30
I1
sI31
I1
sI32
I1
sI33
I0
sI34
I0
sI35
I1
sI36
I1
sI37
I1
sI38
I1
sI39
I1
sI40
I0
sI41
I0
sI42
I0
sI43
I1
sI44
I0
sI45
I1
sI46
I1
sI47
I1
sI48
I0
sI49
I1
sI50
I0
sI51
I0
sI52
I1
sI53
I0
sI54
I1
sI55
I1
sI56
I1
sI57
I0
sI58
I0
sI59
I1
sI60
I1
sI61
I1
sI62
I1
sI63
I0
sI64
I0
sI65
I1
sI66
I1
sI67
I1
sI68
I1
sI69
I0
sI70
I1
sI71
I1
sI72
I0
sI73
I1
sI74
I0
sI75
I1
sI76
I1
sI77
I1
sI78
I0
sI79
I0
sI80
I0
sI81
I0
sI82
I1
sI83
I1
sI84
I1
sI85
I1
sI86
I1
sI87
I1
sI88
I1
sI89
I1
sI90
I1
sI91
I0
sI92
I0
sI93
I0
sI94
I0
sI95
I0
sI96
I1
sI97
I1
sI98
I1
sI99
I1
sI100
I0
sI101
I1
sI102
I1
sI103
I1
sI104
I1
sI105
I1
sI106
I1
sI107
I1
sI108
I0
sI109
I0
sI110
I0
sI111
I1
sI112
I1
sI113
I1
sI114
I1
sI115
I1
sI116
I1
sI117
I1
sI118
I1
sI119
I0
sI120
I1
sI121
I1
sI122
I0
sI123
I1
sI124
I1
sI125
I1
sI126
I0
sI127
I1
sI128
I1
sI129
I1
sI130
I0
sI131
I1
sI132
I1
sI133
I0
sI134
I0
sI135
I0
sI136
I0
sI137
I1
sI138
I1
sI139
I1
sI140
I1
sI141
I1
sI142
I1
sI143
I1
sI144
I1
sI145
I0
sI146
I1
sI147
I1
sI148
I1
sI149
I0
sI150
I0
sI151
I0
sI152
I1
sI153
I0
sI154
I0
sI155
I1
sI156
I1
sI157
I1
sI158
I1
sI159
I0
sI160
I1
sI161
I1
sI162
I1
sI163
I1
sI164
I1
sI165
I0
sI166
I1
sI167
I0
sI168
I1
sI169
I0
sI170
I1
sI171
I0
sI172
I0
sI173
I0
sI174
I0
sI175
I1
sI176
I1
sI177
I1
sI178
I0
sI179
I1
sI180
I1
sI181
I1
sI182
I0
sI183
I1
sI184
I1
sI185
I0
sI186
I0
sI187
I0
sI188
I1
sI189
I1
sI190
I0
sI191
I1
sI192
I1
sI193
I1
sI194
I1
sI195
I0
sI196
I0
sI197
I1
sI198
I1
sI199
I1
sI200
I0
sI201
I0
sI202
I0
sI203
I0
sI204
I1
sI205
I0
sI206
I1
sI207
I0
sI208
I1
sI209
I1
sI210
I1
sI211
I0
sI212
I0
sI213
I0
sI214
I0
sI215
I1
sI216
I1
sI217
I0
sI218
I0
sI219
I1
sI220
I1
sI221
I0
sI222
I1
sI223
I0
sI224
I1
sI225
I1
sI226
I0
sI227
I0
sI228
I0
sI229
I0
sI230
I1
sI231
I0
sI232
I1
sI233
I1
sI234
I0
sI235
I1
sI236
I1
sI237
I1
sI238
I1
sI239
I0
sI240
I0
sI241
I1
sI242
I1
sI243
I1
sI244
I1
sI245
I1
sI246
I1
sI247
I1
sI248
I1
sI249
I1
sI250
I1
sI251
I0
sI252
I1
sI253
I1
sI254
I1
sI255
I0
ssI34
(dp38
I0
I1
sI1
I1
sI2
I1
sI3
I1
sI4
I1
sI5
I1
sI6
I1
sI7
I1
sI8
I0
sI9
I0
sI10
I0
sI11
I0
sI12
I1
sI13
I0
sI14
I1
sI15
I1
sI16
I1
sI17
I1
sI18
I1
sI19
I1
sI20
I0
sI21
I1
sI22
I1
sI23
I1
sI24
I0
sI25
I1
sI26
I1
sI27
I0
sI28
I1
sI29
I1
sI30
I1
sI31
I1
sI32
I1
sI33
I0
sI34
I0
sI35
I1
sI36
I1
sI37
I1
sI38
I1
sI39
I1
sI40
I0
sI41
I0
sI42
I0
sI43
I1
sI44
I0
sI45
I1
sI46
I1
sI47
I1
sI48
I0
sI49
I1
sI50
I0
sI51
I0
sI52
I1
sI53
I0
sI54
I1
sI55
I1
sI56
I1
sI57
I0
sI58
I0
sI59
I1
sI60
I1
sI61
I1
sI62
I1
sI63
I0
sI64
I0
sI65
I1
sI66
I1
sI67
I1
sI68
I1
sI69
I0
sI70
I1
sI71
I1
sI72
I0
sI73
I1
sI74
I0
sI75
I1
sI76
I1
sI77
I1
sI78
I0
sI79
I0
sI80
I0
sI81
I0
sI82
I1
sI83
I1
sI84
I1
sI85
I1
sI86
I1
sI87
I1
sI88
I1
sI89
I1
sI90
I1
sI91
I0
sI92
I0
sI93
I0
sI94
I0
sI95
I0
sI96
I1
sI97
I1
sI98
I1
sI99
I1
sI100
I0
sI101
I1
sI102
I1
sI103
I1
sI104
I1
sI105
I1
sI106
I1
sI107
I1
sI108
I0
sI109
I0
sI110
I0
sI111
I1
sI112
I1
sI113
I1
sI114
I1
sI115
I1
sI116
I1
sI117
I1
sI118
I1
sI119
I0
sI120
I1
sI121
I1
sI122
I0
sI123
I1
sI124
I1
sI125
I1
sI126
I0
sI127
I1
sI128
I1
sI129
I1
sI130
I0
sI131
I1
sI132
I1
sI133
I0
sI134
I0
sI135
I0
sI136
I0
sI137
I1
sI138
I1
sI139
I1
sI140
I1
sI141
I1
sI142
I1
sI143
I1
sI144
I1
sI145
I0
sI146
I1
sI147
I1
sI148
I1
sI149
I0
sI150
I0
sI151
I0
sI152
I1
sI153
I0
sI154
I0
sI155
I1
sI156
I1
sI157
I1
sI158
I1
sI159
I0
sI160
I1
sI161
I1
sI162
I1
sI163
I1
sI164
I1
sI165
I0
sI166
I1
sI167
I0
sI168
I1
sI169
I0
sI170
I1
sI171
I0
sI172
I0
sI173
I0
sI174
I0
sI175
I1
sI176
I1
sI177
I1
sI178
I0
sI179
I1
sI180
I1
sI181
I1
sI182
I0
sI183
I1
sI184
I1
sI185
I0
sI186
I0
sI187
I0
sI188
I1
sI189
I1
sI190
I0
sI191
I1
sI192
I1
sI193
I1
sI194
I1
sI195
I0
sI196
I0
sI197
I1
sI198
I1
sI199
I1
sI200
I0
sI201
I0
sI202
I0
sI203
I0
sI204
I1
sI205
I0
sI206
I1
sI207
I0
sI208
I1
sI209
I1
sI210
I1
sI211
I0
sI212
I0
sI213
I0
sI214
I0
sI215
I1
sI216
I1
sI217
I0
sI218
I0
sI219
I1
sI220
I1
sI221
I0
sI222
I1
sI223
I0
sI224
I1
sI225
I1
sI226
I0
sI227
I0
sI228
I0
sI229
I0
sI230
I1
sI231
I0
sI232
I1
sI233
I1
sI234
I0
sI235
I1
sI236
I1
sI237
I1
sI238
I1
sI239
I0
sI240
I0
sI241
I1
sI242
I1
sI243
I1
sI244
I1
sI245
I1
sI246
I1
sI247
I1
sI248
I1
sI249
I1
sI250
I1
sI251
I0
sI252
I1
sI253
I1
sI254
I1
sI255
I0
ssI35
(dp39
I0
I1
sI1
I1
sI2
I1
sI3
I1
sI4
I1
sI5
I1
sI6
I1
sI7
I1
sI8
I0
sI9
I0
sI10
I0
sI11
I0
sI12
I1
sI13
I0
sI14
I1
sI15
I1
sI16
I1
sI17
I1
sI18
I1
sI19
I1
sI20
I0
sI21
I1
sI22
I1
sI23
I1
sI24
I0
sI25
I1
sI26
I1
sI27
I0
sI28
I1
sI29
I1
sI30
I1
sI31
I1
sI32
I1
sI33
I0
sI34
I0
sI35
I1
sI36
I1
sI37
I1
sI38
I1
sI39
I1
sI40
I0
sI41
I0
sI42
I0
sI43
I1
sI44
I0
sI45
I1
sI46
I1
sI47
I1
sI48
I0
sI49
I1
sI50
I0
sI51
I0
sI52
I1
sI53
I0
sI54
I1
sI55
I1
sI56
I1
sI57
I0
sI58
I0
sI59
I1
sI60
I1
sI61
I1
sI62
I1
sI63
I0
sI64
I0
sI65
I1
sI66
I1
sI67
I1
sI68
I1
sI69
I0
sI70
I1
sI71
I1
sI72
I0
sI73
I1
sI74
I0
sI75
I1
sI76
I1
sI77
I1
sI78
I0
sI79
I0
sI80
I0
sI81
I0
sI82
I1
sI83
I1
sI84
I1
sI85
I1
sI86
I1
sI87
I1
sI88
I1
sI89
I1
sI90
I1
sI91
I0
sI92
I0
sI93
I0
sI94
I0
sI95
I0
sI96
I1
sI97
I1
sI98
I1
sI99
I1
sI100
I0
sI101
I1
sI102
I1
sI103
I1
sI104
I1
sI105
I1
sI106
I1
sI107
I1
sI108
I0
sI109
I0
sI110
I0
sI111
I1
sI112
I1
sI113
I1
sI114
I1
sI115
I1
sI116
I1
sI117
I1
sI118
I1
sI119
I0
sI120
I1
sI121
I1
sI122
I0
sI123
I1
sI124
I1
sI125
I1
sI126
I0
sI127
I1
sI128
I1
sI129
I1
sI130
I0
sI131
I1
sI132
I1
sI133
I0
sI134
I0
sI135
I0
sI136
I0
sI137
I1
sI138
I1
sI139
I1
sI140
I1
sI141
I1
sI142
I1
sI143
I1
sI144
I1
sI145
I0
sI146
I1
sI147
I1
sI148
I1
sI149
I0
sI150
I0
sI151
I0
sI152
I1
sI153
I0
sI154
I0
sI155
I1
sI156
I1
sI157
I1
sI158
I1
sI159
I0
sI160
I1
sI161
I1
sI162
I1
sI163
I1
sI164
I1
sI165
I0
sI166
I1
sI167
I0
sI168
I1
sI169
I0
sI170
I1
sI171
I0
sI172
I0
sI173
I0
sI174
I0
sI175
I1
sI176
I1
sI177
I1
sI178
I0
sI179
I1
sI180
I1
sI181
I1
sI182
I0
sI183
I1
sI184
I1
sI185
I0
sI186
I0
sI187
I0
sI188
I1
sI189
I1
sI190
I0
sI191
I1
sI192
I1
sI193
I1
sI194
I1
sI195
I0
sI196
I0
sI197
I1
sI198
I1
sI199
I1
sI200
I0
sI201
I0
sI202
I0
sI203
I0
sI204
I1
sI205
I0
sI206
I1
sI207
I0
sI208
I1
sI209
I1
sI210
I1
sI211
I0
sI212
I0
sI213
I0
sI214
I0
sI215
I1
sI216
I1
sI217
I0
sI218
I0
sI219
I1
sI220
I1
sI221
I0
sI222
I1
sI223
I0
sI224
I1
sI225
I1
sI226
I0
sI227
I0
sI228
I0
sI229
I0
sI230
I1
sI231
I0
sI232
I1
sI233
I1
sI234
I0
sI235
I1
sI236
I1
sI237
I1
sI238
I1
sI239
I0
sI240
I0
sI241
I1
sI242
I1
sI243
I1
sI244
I1
sI245
I1
sI246
I1
sI247
I1
sI248
I1
sI249
I1
sI250
I1
sI251
I0
sI252
I1
sI253
I1
sI254
I1
sI255
I0
ssI36
(dp40
I0
I1
sI1
I1
sI2
I1
sI3
I1
sI4
I1
sI5
I1
sI6
I1
sI7
I1
sI8
I0
sI9
I0
sI10
I0
sI11
I0
sI12
I1
sI13
I0
sI14
I1
sI15
I1
sI16
I1
sI17
I1
sI18
I1
sI19
I1
sI20
I0
sI21
I1
sI22
I1
sI23
I1
sI24
I0
sI25
I1
sI26
I1
sI27
I0
sI28
I1
sI29
I1
sI30
I1
sI31
I1
sI32
I1
sI33
I0
sI34
I0
sI35
I1
sI36
I1
sI37
I1
sI38
I1
sI39
I1
sI40
I0
sI41
I0
sI42
I0
sI43
I1
sI44
I0
sI45
I1
sI46
I1
sI47
I1
sI48
I0
sI49
I1
sI50
I0
sI51
I0
sI52
I1
sI53
I0
sI54
I1
sI55
I1
sI56
I1
sI57
I0
sI58
I0
sI59
I1
sI60
I1
sI61
I1
sI62
I1
sI63
I0
sI64
I0
sI65
I1
sI66
I1
sI67
I1
sI68
I1
sI69
I0
sI70
I1
sI71
I1
sI72
I0
sI73
I1
sI74
I0
sI75
I1
sI76
I1
sI77
I1
sI78
I0
sI79
I0
sI80
I0
sI81
I0
sI82
I1
sI83
I1
sI84
I1
sI85
I1
sI86
I1
sI87
I1
sI88
I1
sI89
I1
sI90
I1
sI91
I0
sI92
I0
sI93
I0
sI94
I0
sI95
I0
sI96
I1
sI97
I1
sI98
I1
sI99
I1
sI100
I0
sI101
I1
sI102
I1
sI103
I1
sI104
I1
sI105
I1
sI106
I1
sI107
I1
sI108
I0
sI109
I0
sI110
I0
sI111
I1
sI112
I1
sI113
I1
sI114
I1
sI115
I1
sI116
I1
sI117
I1
sI118
I1
sI119
I0
sI120
I1
sI121
I1
sI122
I0
sI123
I1
sI124
I1
sI125
I1
sI126
I0
sI127
I1
sI128
I1
sI129
I1
sI130
I0
sI131
I1
sI132
I1
sI133
I0
sI134
I0
sI135
I0
sI136
I0
sI137
I1
sI138
I1
sI139
I1
sI140
I1
sI141
I1
sI142
I1
sI143
I1
sI144
I1
sI145
I0
sI146
I1
sI147
I1
sI148
I1
sI149
I0
sI150
I0
sI151
I0
sI152
I1
sI153
I0
sI154
I0
sI155
I1
sI156
I1
sI157
I1
sI158
I1
sI159
I0
sI160
I1
sI161
I1
sI162
I1
sI163
I1
sI164
I1
sI165
I0
sI166
I1
sI167
I0
sI168
I1
sI169
I0
sI170
I1
sI171
I0
sI172
I0
sI173
I0
sI174
I0
sI175
I1
sI176
I1
sI177
I1
sI178
I0
sI179
I1
sI180
I1
sI181
I1
sI182
I0
sI183
I1
sI184
I1
sI185
I0
sI186
I0
sI187
I0
sI188
I1
sI189
I1
sI190
I0
sI191
I1
sI192
I1
sI193
I1
sI194
I1
sI195
I0
sI196
I0
sI197
I1
sI198
I1
sI199
I1
sI200
I0
sI201
I0
sI202
I0
sI203
I0
sI204
I1
sI205
I0
sI206
I1
sI207
I0
sI208
I1
sI209
I1
sI210
I1
sI211
I0
sI212
I0
sI213
I0
sI214
I0
sI215
I1
sI216
I1
sI217
I0
sI218
I0
sI219
I1
sI220
I1
sI221
I0
sI222
I1
sI223
I0
sI224
I1
sI225
I1
sI226
I0
sI227
I0
sI228
I0
sI229
I0
sI230
I1
sI231
I0
sI232
I1
sI233
I1
sI234
I0
sI235
I1
sI236
I1
sI237
I1
sI238
I1
sI239
I0
sI240
I0
sI241
I1
sI242
I1
sI243
I1
sI244
I1
sI245
I1
sI246
I1
sI247
I1
sI248
I1
sI249
I1
sI250
I1
sI251
I0
sI252
I1
sI253
I1
sI254
I1
sI255
I0
ssI37
(dp41
I0
I1
sI1
I1
sI2
I1
sI3
I1
sI4
I1
sI5
I1
sI6
I1
sI7
I1
sI8
I0
sI9
I0
sI10
I0
sI11
I0
sI12
I1
sI13
I0
sI14
I1
sI15
I1
sI16
I1
sI17
I1
sI18
I1
sI19
I1
sI20
I0
sI21
I1
sI22
I1
sI23
I1
sI24
I0
sI25
I1
sI26
I1
sI27
I0
sI28
I1
sI29
I1
sI30
I1
sI31
I1
sI32
I1
sI33
I0
sI34
I0
sI35
I1
sI36
I1
sI37
I1
sI38
I1
sI39
I1
sI40
I0
sI41
I0
sI42
I0
sI43
I1
sI44
I0
sI45
I1
sI46
I1
sI47
I1
sI48
I0
sI49
I1
sI50
I0
sI51
I0
sI52
I1
sI53
I0
sI54
I1
sI55
I1
sI56
I1
sI57
I0
sI58
I0
sI59
I1
sI60
I1
sI61
I1
sI62
I1
sI63
I0
sI64
I0
sI65
I1
sI66
I1
sI67
I1
sI68
I1
sI69
I0
sI70
I1
sI71
I1
sI72
I0
sI73
I1
sI74
I0
sI75
I1
sI76
I1
sI77
I1
sI78
I0
sI79
I0
sI80
I0
sI81
I0
sI82
I1
sI83
I1
sI84
I1
sI85
I1
sI86
I1
sI87
I1
sI88
I1
sI89
I1
sI90
I1
sI91
I0
sI92
I0
sI93
I0
sI94
I0
sI95
I0
sI96
I1
sI97
I1
sI98
I1
sI99
I1
sI100
I0
sI101
I1
sI102
I1
sI103
I1
sI104
I1
sI105
I1
sI106
I1
sI107
I1
sI108
I0
sI109
I0
sI110
I0
sI111
I1
sI112
I1
sI113
I1
sI114
I1
sI115
I1
sI116
I1
sI117
I1
sI118
I1
sI119
I0
sI120
I1
sI121
I1
sI122
I0
sI123
I1
sI124
I1
sI125
I1
sI126
I0
sI127
I1
sI128
I1
sI129
I1
sI130
I0
sI131
I1
sI132
I1
sI133
I0
sI134
I0
sI135
I0
sI136
I0
sI137
I1
sI138
I1
sI139
I1
sI140
I1
sI141
I1
sI142
I1
sI143
I1
sI144
I1
sI145
I0
sI146
I1
sI147
I1
sI148
I1
sI149
I0
sI150
I0
sI151
I0
sI152
I1
sI153
I0
sI154
I0
sI155
I1
sI156
I1
sI157
I1
sI158
I1
sI159
I0
sI160
I1
sI161
I1
sI162
I1
sI163
I1
sI164
I1
sI165
I0
sI166
I1
sI167
I0
sI168
I1
sI169
I0
sI170
I1
sI171
I0
sI172
I0
sI173
I0
sI174
I0
sI175
I1
sI176
I1
sI177
I1
sI178
I0
sI179
I1
sI180
I1
sI181
I1
sI182
I0
sI183
I1
sI184
I1
sI185
I0
sI186
I0
sI187
I0
sI188
I1
sI189
I1
sI190
I0
sI191
I1
sI192
I1
sI193
I1
sI194
I1
sI195
I0
sI196
I0
sI197
I1
sI198
I1
sI199
I1
sI200
I0
sI201
I0
sI202
I0
sI203
I0
sI204
I1
sI205
I0
sI206
I1
sI207
I0
sI208
I1
sI209
I1
sI210
I1
sI211
I0
sI212
I0
sI213
I0
sI214
I0
sI215
I1
sI216
I1
sI217
I0
sI218
I0
sI219
I1
sI220
I1
sI221
I0
sI222
I1
sI223
I0
sI224
I1
sI225
I1
sI226
I0
sI227
I0
sI228
I0
sI229
I0
sI230
I1
sI231
I0
sI232
I1
sI233
I1
sI234
I0
sI235
I1
sI236
I1
sI237
I1
sI238
I1
sI239
I0
sI240
I0
sI241
I1
sI242
I1
sI243
I1
sI244
I1
sI245
I1
sI246
I1
sI247
I1
sI248
I1
sI249
I1
sI250
I1
sI251
I0
sI252
I1
sI253
I1
sI254
I1
sI255
I0
ssI38
(dp42
I0
I1
sI1
I1
sI2
I1
sI3
I1
sI4
I1
sI5
I1
sI6
I1
sI7
I1
sI8
I0
sI9
I0
sI10
I0
sI11
I0
sI12
I1
sI13
I0
sI14
I1
sI15
I1
sI16
I1
sI17
I1
sI18
I1
sI19
I1
sI20
I0
sI21
I1
sI22
I1
sI23
I1
sI24
I0
sI25
I1
sI26
I1
sI27
I0
sI28
I1
sI29
I1
sI30
I1
sI31
I1
sI32
I1
sI33
I0
sI34
I0
sI35
I1
sI36
I1
sI37
I1
sI38
I1
sI39
I1
sI40
I0
sI41
I0
sI42
I0
sI43
I1
sI44
I0
sI45
I1
sI46
I1
sI47
I1
sI48
I0
sI49
I1
sI50
I0
sI51
I0
sI52
I1
sI53
I0
sI54
I1
sI55
I1
sI56
I1
sI57
I0
sI58
I0
sI59
I1
sI60
I1
sI61
I1
sI62
I1
sI63
I0
sI64
I0
sI65
I1
sI66
I1
sI67
I1
sI68
I1
sI69
I0
sI70
I1
sI71
I1
sI72
I0
sI73
I1
sI74
I0
sI75
I1
sI76
I1
sI77
I1
sI78
I0
sI79
I0
sI80
I0
sI81
I0
sI82
I1
sI83
I1
sI84
I1
sI85
I1
sI86
I1
sI87
I1
sI88
I1
sI89
I1
sI90
I1
sI91
I0
sI92
I0
sI93
I0
sI94
I0
sI95
I0
sI96
I1
sI97
I1
sI98
I1
sI99
I1
sI100
I0
sI101
I1
sI102
I1
sI103
I1
sI104
I1
sI105
I1
sI106
I1
sI107
I1
sI108
I0
sI109
I0
sI110
I0
sI111
I1
sI112
I1
sI113
I1
sI114
I1
sI115
I1
sI116
I1
sI117
I1
sI118
I1
sI119
I0
sI120
I1
sI121
I1
sI122
I0
sI123
I1
sI124
I1
sI125
I1
sI126
I0
sI127
I1
sI128
I1
sI129
I1
sI130
I0
sI131
I1
sI132
I1
sI133
I0
sI134
I0
sI135
I0
sI136
I0
sI137
I1
sI138
I1
sI139
I1
sI140
I1
sI141
I1
sI142
I1
sI143
I1
sI144
I1
sI145
I0
sI146
I1
sI147
I1
sI148
I1
sI149
I0
sI150
I0
sI151
I0
sI152
I1
sI153
I0
sI154
I0
sI155
I1
sI156
I1
sI157
I1
sI158
I1
sI159
I0
sI160
I1
sI161
I1
sI162
I1
sI163
I1
sI164
I1
sI165
I0
sI166
I1
sI167
I0
sI168
I1
sI169
I0
sI170
I1
sI171
I0
sI172
I0
sI173
I0
sI174
I0
sI175
I1
sI176
I1
sI177
I1
sI178
I0
sI179
I1
sI180
I1
sI181
I1
sI182
I0
sI183
I1
sI184
I1
sI185
I0
sI186
I0
sI187
I0
sI188
I1
sI189
I1
sI190
I0
sI191
I1
sI192
I1
sI193
I1
sI194
I1
sI195
I0
sI196
I0
sI197
I1
sI198
I1
sI199
I1
sI200
I0
sI201
I0
sI202
I0
sI203
I0
sI204
I1
sI205
I0
sI206
I1
sI207
I0
sI208
I1
sI209
I1
sI210
I1
sI211
I0
sI212
I0
sI213
I0
sI214
I0
sI215
I1
sI216
I1
sI217
I0
sI218
I0
sI219
I1
sI220
I1
sI221
I0
sI222
I1
sI223
I0
sI224
I1
sI225
I1
sI226
I0
sI227
I0
sI228
I0
sI229
I0
sI230
I1
sI231
I0
sI232
I1
sI233
I1
sI234
I0
sI235
I1
sI236
I1
sI237
I1
sI238
I1
sI239
I0
sI240
I0
sI241
I1
sI242
I1
sI243
I1
sI244
I1
sI245
I1
sI246
I1
sI247
I1
sI248
I1
sI249
I1
sI250
I1
sI251
I0
sI252
I1
sI253
I1
sI254
I1
sI255
I0
ssI39
(dp43
I0
I1
sI1
I1
sI2
I1
sI3
I1
sI4
I1
sI5
I1
sI6
I1
sI7
I1
sI8
I0
sI9
I0
sI10
I0
sI11
I0
sI12
I1
sI13
I0
sI14
I1
sI15
I1
sI16
I1
sI17
I1
sI18
I1
sI19
I1
sI20
I0
sI21
I1
sI22
I1
sI23
I1
sI24
I0
sI25
I1
sI26
I1
sI27
I0
sI28
I1
sI29
I1
sI30
I1
sI31
I1
sI32
I1
sI33
I0
sI34
I0
sI35
I1
sI36
I1
sI37
I1
sI38
I1
sI39
I1
sI40
I0
sI41
I0
sI42
I0
sI43
I1
sI44
I0
sI45
I1
sI46
I1
sI47
I1
sI48
I0
sI49
I1
sI50
I0
sI51
I0
sI52
I1
sI53
I0
sI54
I1
sI55
I1
sI56
I1
sI57
I0
sI58
I0
sI59
I1
sI60
I1
sI61
I1
sI62
I1
sI63
I0
sI64
I0
sI65
I1
sI66
I1
sI67
I1
sI68
I1
sI69
I0
sI70
I1
sI71
I1
sI72
I0
sI73
I1
sI74
I0
sI75
I1
sI76
I1
sI77
I1
sI78
I0
sI79
I0
sI80
I0
sI81
I0
sI82
I1
sI83
I1
sI84
I1
sI85
I1
sI86
I1
sI87
I1
sI88
I1
sI89
I1
sI90
I1
sI91
I0
sI92
I0
sI93
I0
sI94
I0
sI95
I0
sI96
I1
sI97
I1
sI98
I1
sI99
I1
sI100
I0
sI101
I1
sI102
I1
sI103
I1
sI104
I1
sI105
I1
sI106
I1
sI107
I1
sI108
I0
sI109
I0
sI110
I0
sI111
I1
sI112
I1
sI113
I1
sI114
I1
sI115
I1
sI116
I1
sI117
I1
sI118
I1
sI119
I0
sI120
I1
sI121
I1
sI122
I0
sI123
I1
sI124
I1
sI125
I1
sI126
I0
sI127
I1
sI128
I1
sI129
I1
sI130
I0
sI131
I1
sI132
I1
sI133
I0
sI134
I0
sI135
I0
sI136
I0
sI137
I1
sI138
I1
sI139
I1
sI140
I1
sI141
I1
sI142
I1
sI143
I1
sI144
I1
sI145
I0
sI146
I1
sI147
I1
sI148
I1
sI149
I0
sI150
I0
sI151
I0
sI152
I1
sI153
I0
sI154
I0
sI155
I1
sI156
I1
sI157
I1
sI158
I1
sI159
I0
sI160
I1
sI161
I1
sI162
I1
sI163
I1
sI164
I1
sI165
I0
sI166
I1
sI167
I0
sI168
I1
sI169
I0
sI170
I1
sI171
I0
sI172
I0
sI173
I0
sI174
I0
sI175
I1
sI176
I1
sI177
I1
sI178
I0
sI179
I1
sI180
I1
sI181
I1
sI182
I0
sI183
I1
sI184
I1
sI185
I0
sI186
I0
sI187
I0
sI188
I1
sI189
I1
sI190
I0
sI191
I1
sI192
I1
sI193
I1
sI194
I1
sI195
I0
sI196
I0
sI197
I1
sI198
I1
sI199
I1
sI200
I0
sI201
I0
sI202
I0
sI203
I0
sI204
I1
sI205
I0
sI206
I1
sI207
I0
sI208
I1
sI209
I1
sI210
I1
sI211
I0
sI212
I0
sI213
I0
sI214
I0
sI215
I1
sI216
I1
sI217
I0
sI218
I0
sI219
I1
sI220
I1
sI221
I0
sI222
I1
sI223
I0
sI224
I1
sI225
I1
sI226
I0
sI227
I0
sI228
I0
sI229
I0
sI230
I1
sI231
I0
sI232
I1
sI233
I1
sI234
I0
sI235
I1
sI236
I1
sI237
I1
sI238
I1
sI239
I0
sI240
I0
sI241
I1
sI242
I1
sI243
I1
sI244
I1
sI245
I1
sI246
I1
sI247
I1
sI248
I1
sI249
I1
sI250
I1
sI251
I0
sI252
I1
sI253
I1
sI254
I1
sI255
I0
ssI40
(dp44
I0
I1
sI1
I1
sI2
I1
sI3
I1
sI4
I1
sI5
I1
sI6
I1
sI7
I1
sI8
I0
sI9
I0
sI10
I0
sI11
I0
sI12
I1
sI13
I0
sI14
I1
sI15
I1
sI16
I1
sI17
I1
sI18
I1
sI19
I1
sI20
I0
sI21
I1
sI22
I1
sI23
I1
sI24
I0
sI25
I1
sI26
I1
sI27
I0
sI28
I1
sI29
I1
sI30
I1
sI31
I1
sI32
I1
sI33
I0
sI34
I0
sI35
I1
sI36
I1
sI37
I1
sI38
I1
sI39
I1
sI40
I0
sI41
I0
sI42
I0
sI43
I1
sI44
I0
sI45
I1
sI46
I1
sI47
I1
sI48
I0
sI49
I1
sI50
I0
sI51
I0
sI52
I1
sI53
I0
sI54
I1
sI55
I1
sI56
I1
sI57
I0
sI58
I0
sI59
I1
sI60
I1
sI61
I1
sI62
I1
sI63
I0
sI64
I0
sI65
I1
sI66
I1
sI67
I1
sI68
I1
sI69
I0
sI70
I1
sI71
I1
sI72
I0
sI73
I1
sI74
I0
sI75
I1
sI76
I1
sI77
I1
sI78
I0
sI79
I0
sI80
I0
sI81
I0
sI82
I1
sI83
I1
sI84
I1
sI85
I1
sI86
I1
sI87
I1
sI88
I1
sI89
I1
sI90
I1
sI91
I0
sI92
I0
sI93
I0
sI94
I0
sI95
I0
sI96
I1
sI97
I1
sI98
I1
sI99
I1
sI100
I0
sI101
I1
sI102
I1
sI103
I1
sI104
I1
sI105
I1
sI106
I1
sI107
I1
sI108
I0
sI109
I0
sI110
I0
sI111
I1
sI112
I1
sI113
I1
sI114
I1
sI115
I1
sI116
I1
sI117
I1
sI118
I1
sI119
I0
sI120
I1
sI121
I1
sI122
I0
sI123
I1
sI124
I1
sI125
I1
sI126
I0
sI127
I1
sI128
I1
sI129
I1
sI130
I0
sI131
I1
sI132
I1
sI133
I0
sI134
I0
sI135
I0
sI136
I0
sI137
I1
sI138
I1
sI139
I1
sI140
I1
sI141
I1
sI142
I1
sI143
I1
sI144
I1
sI145
I0
sI146
I1
sI147
I1
sI148
I1
sI149
I0
sI150
I0
sI151
I0
sI152
I1
sI153
I0
sI154
I0
sI155
I1
sI156
I1
sI157
I1
sI158
I1
sI159
I0
sI160
I1
sI161
I1
sI162
I1
sI163
I1
sI164
I1
sI165
I0
sI166
I1
sI167
I0
sI168
I1
sI169
I0
sI170
I1
sI171
I0
sI172
I0
sI173
I0
sI174
I0
sI175
I1
sI176
I1
sI177
I1
sI178
I0
sI179
I1
sI180
I1
sI181
I1
sI182
I0
sI183
I1
sI184
I1
sI185
I0
sI186
I0
sI187
I0
sI188
I1
sI189
I1
sI190
I0
sI191
I1
sI192
I1
sI193
I1
sI194
I1
sI195
I0
sI196
I0
sI197
I1
sI198
I1
sI199
I1
sI200
I0
sI201
I0
sI202
I0
sI203
I0
sI204
I1
sI205
I0
sI206
I1
sI207
I0
sI208
I1
sI209
I1
sI210
I1
sI211
I0
sI212
I0
sI213
I0
sI214
I0
sI215
I1
sI216
I1
sI217
I0
sI218
I0
sI219
I1
sI220
I1
sI221
I0
sI222
I1
sI223
I0
sI224
I1
sI225
I1
sI226
I0
sI227
I0
sI228
I0
sI229
I0
sI230
I1
sI231
I0
sI232
I1
sI233
I1
sI234
I0
sI235
I1
sI236
I1
sI237
I1
sI238
I1
sI239
I0
sI240
I0
sI241
I1
sI242
I1
sI243
I1
sI244
I1
sI245
I1
sI246
I1
sI247
I1
sI248
I1
sI249
I1
sI250
I1
sI251
I0
sI252
I1
sI253
I1
sI254
I1
sI255
I0
ssI41
(dp45
I0
I1
sI1
I1
sI2
I1
sI3
I1
sI4
I1
sI5
I1
sI6
I1
sI7
I1
sI8
I0
sI9
I0
sI10
I0
sI11
I0
sI12
I1
sI13
I0
sI14
I1
sI15
I1
sI16
I1
sI17
I1
sI18
I1
sI19
I1
sI20
I0
sI21
I1
sI22
I1
sI23
I1
sI24
I0
sI25
I1
sI26
I1
sI27
I0
sI28
I1
sI29
I1
sI30
I1
sI31
I1
sI32
I1
sI33
I0
sI34
I0
sI35
I1
sI36
I1
sI37
I1
sI38
I1
sI39
I1
sI40
I0
sI41
I0
sI42
I0
sI43
I1
sI44
I0
sI45
I1
sI46
I1
sI47
I1
sI48
I0
sI49
I1
sI50
I0
sI51
I0
sI52
I1
sI53
I0
sI54
I1
sI55
I1
sI56
I1
sI57
I0
sI58
I0
sI59
I1
sI60
I1
sI61
I1
sI62
I1
sI63
I0
sI64
I0
sI65
I1
sI66
I1
sI67
I1
sI68
I1
sI69
I0
sI70
I1
sI71
I1
sI72
I0
sI73
I1
sI74
I0
sI75
I1
sI76
I1
sI77
I1
sI78
I0
sI79
I0
sI80
I0
sI81
I0
sI82
I1
sI83
I1
sI84
I1
sI85
I1
sI86
I1
sI87
I1
sI88
I1
sI89
I1
sI90
I1
sI91
I0
sI92
I0
sI93
I0
sI94
I0
sI95
I0
sI96
I1
sI97
I1
sI98
I1
sI99
I1
sI100
I0
sI101
I1
sI102
I1
sI103
I1
sI104
I1
sI105
I1
sI106
I1
sI107
I1
sI108
I0
sI109
I0
sI110
I0
sI111
I1
sI112
I1
sI113
I1
sI114
I1
sI115
I1
sI116
I1
sI117
I1
sI118
I1
sI119
I0
sI120
I1
sI121
I1
sI122
I0
sI123
I1
sI124
I1
sI125
I1
sI126
I0
sI127
I1
sI128
I1
sI129
I1
sI130
I0
sI131
I1
sI132
I1
sI133
I0
sI134
I0
sI135
I0
sI136
I0
sI137
I1
sI138
I1
sI139
I1
sI140
I1
sI141
I1
sI142
I1
sI143
I1
sI144
I1
sI145
I0
sI146
I1
sI147
I1
sI148
I1
sI149
I0
sI150
I0
sI151
I0
sI152
I1
sI153
I0
sI154
I0
sI155
I1
sI156
I1
sI157
I1
sI158
I1
sI159
I0
sI160
I1
sI161
I1
sI162
I1
sI163
I1
sI164
I1
sI165
I0
sI166
I1
sI167
I0
sI168
I1
sI169
I0
sI170
I1
sI171
I0
sI172
I0
sI173
I0
sI174
I0
sI175
I1
sI176
I1
sI177
I1
sI178
I0
sI179
I1
sI180
I1
sI181
I1
sI182
I0
sI183
I1
sI184
I1
sI185
I0
sI186
I0
sI187
I0
sI188
I1
sI189
I1
sI190
I0
sI191
I1
sI192
I1
sI193
I1
sI194
I1
sI195
I0
sI196
I0
sI197
I1
sI198
I1
sI199
I1
sI200
I0
sI201
I0
sI202
I0
sI203
I0
sI204
I1
sI205
I0
sI206
I1
sI207
I0
sI208
I1
sI209
I1
sI210
I1
sI211
I0
sI212
I0
sI213
I0
sI214
I0
sI215
I1
sI216
I1
sI217
I0
sI218
I0
sI219
I1
sI220
I1
sI221
I0
sI222
I1
sI223
I0
sI224
I1
sI225
I1
sI226
I0
sI227
I0
sI228
I0
sI229
I0
sI230
I1
sI231
I0
sI232
I1
sI233
I1
sI234
I0
sI235
I1
sI236
I1
sI237
I1
sI238
I1
sI239
I0
sI240
I0
sI241
I1
sI242
I1
sI243
I1
sI244
I1
sI245
I1
sI246
I1
sI247
I1
sI248
I1
sI249
I1
sI250
I1
sI251
I0
sI252
I1
sI253
I1
sI254
I1
sI255
I0
ssI42
(dp46
I0
I1
sI1
I1
sI2
I1
sI3
I1
sI4
I1
sI5
I1
sI6
I1
sI7
I1
sI8
I0
sI9
I0
sI10
I0
sI11
I0
sI12
I1
sI13
I0
sI14
I1
sI15
I1
sI16
I1
sI17
I1
sI18
I1
sI19
I1
sI20
I0
sI21
I1
sI22
I1
sI23
I1
sI24
I0
sI25
I1
sI26
I1
sI27
I0
sI28
I1
sI29
I1
sI30
I1
sI31
I1
sI32
I1
sI33
I0
sI34
I0
sI35
I1
sI36
I1
sI37
I1
sI38
I1
sI39
I1
sI40
I0
sI41
I0
sI42
I0
sI43
I1
sI44
I0
sI45
I1
sI46
I1
sI47
I1
sI48
I0
sI49
I1
sI50
I0
sI51
I0
sI52
I1
sI53
I0
sI54
I1
sI55
I1
sI56
I1
sI57
I0
sI58
I0
sI59
I1
sI60
I1
sI61
I1
sI62
I1
sI63
I0
sI64
I0
sI65
I1
sI66
I1
sI67
I1
sI68
I1
sI69
I0
sI70
I1
sI71
I1
sI72
I0
sI73
I1
sI74
I0
sI75
I1
sI76
I1
sI77
I1
sI78
I0
sI79
I0
sI80
I0
sI81
I0
sI82
I1
sI83
I1
sI84
I1
sI85
I1
sI86
I1
sI87
I1
sI88
I1
sI89
I1
sI90
I1
sI91
I0
sI92
I0
sI93
I0
sI94
I0
sI95
I0
sI96
I1
sI97
I1
sI98
I1
sI99
I1
sI100
I0
sI101
I1
sI102
I1
sI103
I1
sI104
I1
sI105
I1
sI106
I1
sI107
I1
sI108
I0
sI109
I0
sI110
I0
sI111
I1
sI112
I1
sI113
I1
sI114
I1
sI115
I1
sI116
I1
sI117
I1
sI118
I1
sI119
I0
sI120
I1
sI121
I1
sI122
I0
sI123
I1
sI124
I1
sI125
I1
sI126
I0
sI127
I1
sI128
I1
sI129
I1
sI130
I0
sI131
I1
sI132
I1
sI133
I0
sI134
I0
sI135
I0
sI136
I0
sI137
I1
sI138
I1
sI139
I1
sI140
I1
sI141
I1
sI142
I1
sI143
I1
sI144
I1
sI145
I0
sI146
I1
sI147
I1
sI148
I1
sI149
I0
sI150
I0
sI151
I0
sI152
I1
sI153
I0
sI154
I0
sI155
I1
sI156
I1
sI157
I1
sI158
I1
sI159
I0
sI160
I1
sI161
I1
sI162
I1
sI163
I1
sI164
I1
sI165
I0
sI166
I1
sI167
I0
sI168
I1
sI169
I0
sI170
I1
sI171
I0
sI172
I0
sI173
I0
sI174
I0
sI175
I1
sI176
I1
sI177
I1
sI178
I0
sI179
I1
sI180
I1
sI181
I1
sI182
I0
sI183
I1
sI184
I1
sI185
I0
sI186
I0
sI187
I0
sI188
I1
sI189
I1
sI190
I0
sI191
I1
sI192
I1
sI193
I1
sI194
I1
sI195
I0
sI196
I0
sI197
I1
sI198
I1
sI199
I1
sI200
I0
sI201
I0
sI202
I0
sI203
I0
sI204
I1
sI205
I0
sI206
I1
sI207
I0
sI208
I1
sI209
I1
sI210
I1
sI211
I0
sI212
I0
sI213
I0
sI214
I0
sI215
I1
sI216
I1
sI217
I0
sI218
I0
sI219
I1
sI220
I1
sI221
I0
sI222
I1
sI223
I0
sI224
I1
sI225
I1
sI226
I0
sI227
I0
sI228
I0
sI229
I0
sI230
I1
sI231
I0
sI232
I1
sI233
I1
sI234
I0
sI235
I1
sI236
I1
sI237
I1
sI238
I1
sI239
I0
sI240
I0
sI241
I1
sI242
I1
sI243
I1
sI244
I1
sI245
I1
sI246
I1
sI247
I1
sI248
I1
sI249
I1
sI250
I1
sI251
I0
sI252
I1
sI253
I1
sI254
I1
sI255
I0
ssI43
(dp47
I0
I1
sI1
I1
sI2
I1
sI3
I1
sI4
I1
sI5
I1
sI6
I1
sI7
I1
sI8
I0
sI9
I0
sI10
I0
sI11
I0
sI12
I1
sI13
I0
sI14
I1
sI15
I1
sI16
I1
sI17
I1
sI18
I1
sI19
I1
sI20
I0
sI21
I1
sI22
I1
sI23
I1
sI24
I0
sI25
I1
sI26
I1
sI27
I0
sI28
I1
sI29
I1
sI30
I1
sI31
I1
sI32
I1
sI33
I0
sI34
I0
sI35
I1
sI36
I1
sI37
I1
sI38
I1
sI39
I1
sI40
I0
sI41
I0
sI42
I0
sI43
I1
sI44
I0
sI45
I1
sI46
I1
sI47
I1
sI48
I0
sI49
I1
sI50
I0
sI51
I0
sI52
I1
sI53
I0
sI54
I1
sI55
I1
sI56
I1
sI57
I0
sI58
I0
sI59
I1
sI60
I1
sI61
I1
sI62
I1
sI63
I0
sI64
I0
sI65
I1
sI66
I1
sI67
I1
sI68
I1
sI69
I0
sI70
I1
sI71
I1
sI72
I0
sI73
I1
sI74
I0
sI75
I1
sI76
I1
sI77
I1
sI78
I0
sI79
I0
sI80
I0
sI81
I0
sI82
I1
sI83
I1
sI84
I1
sI85
I1
sI86
I1
sI87
I1
sI88
I1
sI89
I1
sI90
I1
sI91
I0
sI92
I0
sI93
I0
sI94
I0
sI95
I0
sI96
I1
sI97
I1
sI98
I1
sI99
I1
sI100
I0
sI101
I1
sI102
I1
sI103
I1
sI104
I1
sI105
I1
sI106
I1
sI107
I1
sI108
I0
sI109
I0
sI110
I0
sI111
I1
sI112
I1
sI113
I1
sI114
I1
sI115
I1
sI116
I1
sI117
I1
sI118
I1
sI119
I0
sI120
I1
sI121
I1
sI122
I0
sI123
I1
sI124
I1
sI125
I1
sI126
I0
sI127
I1
sI128
I1
sI129
I1
sI130
I0
sI131
I1
sI132
I1
sI133
I0
sI134
I0
sI135
I0
sI136
I0
sI137
I1
sI138
I1
sI139
I1
sI140
I1
sI141
I1
sI142
I1
sI143
I1
sI144
I1
sI145
I0
sI146
I1
sI147
I1
sI148
I1
sI149
I0
sI150
I0
sI151
I0
sI152
I1
sI153
I0
sI154
I0
sI155
I1
sI156
I1
sI157
I1
sI158
I1
sI159
I0
sI160
I1
sI161
I1
sI162
I1
sI163
I1
sI164
I1
sI165
I0
sI166
I1
sI167
I0
sI168
I1
sI169
I0
sI170
I1
sI171
I0
sI172
I0
sI173
I0
sI174
I0
sI175
I1
sI176
I1
sI177
I1
sI178
I0
sI179
I1
sI180
I1
sI181
I1
sI182
I0
sI183
I1
sI184
I1
sI185
I0
sI186
I0
sI187
I0
sI188
I1
sI189
I1
sI190
I0
sI191
I1
sI192
I1
sI193
I1
sI194
I1
sI195
I0
sI196
I0
sI197
I1
sI198
I1
sI199
I1
sI200
I0
sI201
I0
sI202
I0
sI203
I0
sI204
I1
sI205
I0
sI206
I1
sI207
I0
sI208
I1
sI209
I1
sI210
I1
sI211
I0
sI212
I0
sI213
I0
sI214
I0
sI215
I1
sI216
I1
sI217
I0
sI218
I0
sI219
I1
sI220
I1
sI221
I0
sI222
I1
sI223
I0
sI224
I1
sI225
I1
sI226
I0
sI227
I0
sI228
I0
sI229
I0
sI230
I1
sI231
I0
sI232
I1
sI233
I1
sI234
I0
sI235
I1
sI236
I1
sI237
I1
sI238
I1
sI239
I0
sI240
I0
sI241
I1
sI242
I1
sI243
I1
sI244
I1
sI245
I1
sI246
I1
sI247
I1
sI248
I1
sI249
I1
sI250
I1
sI251
I0
sI252
I1
sI253
I1
sI254
I1
sI255
I0
ssI44
(dp48
I0
I1
sI1
I1
sI2
I1
sI3
I1
sI4
I1
sI5
I1
sI6
I1
sI7
I1
sI8
I0
sI9
I0
sI10
I0
sI11
I0
sI12
I1
sI13
I0
sI14
I1
sI15
I1
sI16
I1
sI17
I1
sI18
I1
sI19
I1
sI20
I0
sI21
I1
sI22
I1
sI23
I1
sI24
I0
sI25
I1
sI26
I1
sI27
I0
sI28
I1
sI29
I1
sI30
I1
sI31
I1
sI32
I1
sI33
I0
sI34
I0
sI35
I1
sI36
I1
sI37
I1
sI38
I1
sI39
I1
sI40
I0
sI41
I0
sI42
I0
sI43
I1
sI44
I0
sI45
I1
sI46
I1
sI47
I1
sI48
I0
sI49
I1
sI50
I0
sI51
I0
sI52
I1
sI53
I0
sI54
I1
sI55
I1
sI56
I1
sI57
I0
sI58
I0
sI59
I1
sI60
I1
sI61
I1
sI62
I1
sI63
I0
sI64
I0
sI65
I1
sI66
I1
sI67
I1
sI68
I1
sI69
I0
sI70
I1
sI71
I1
sI72
I0
sI73
I1
sI74
I0
sI75
I1
sI76
I1
sI77
I1
sI78
I0
sI79
I0
sI80
I0
sI81
I0
sI82
I1
sI83
I1
sI84
I1
sI85
I1
sI86
I1
sI87
I1
sI88
I1
sI89
I1
sI90
I1
sI91
I0
sI92
I0
sI93
I0
sI94
I0
sI95
I0
sI96
I1
sI97
I1
sI98
I1
sI99
I1
sI100
I0
sI101
I1
sI102
I1
sI103
I1
sI104
I1
sI105
I1
sI106
I1
sI107
I1
sI108
I0
sI109
I0
sI110
I0
sI111
I1
sI112
I1
sI113
I1
sI114
I1
sI115
I1
sI116
I1
sI117
I1
sI118
I1
sI119
I0
sI120
I1
sI121
I1
sI122
I0
sI123
I1
sI124
I1
sI125
I1
sI126
I0
sI127
I1
sI128
I1
sI129
I1
sI130
I0
sI131
I1
sI132
I1
sI133
I0
sI134
I0
sI135
I0
sI136
I0
sI137
I1
sI138
I1
sI139
I1
sI140
I1
sI141
I1
sI142
I1
sI143
I1
sI144
I1
sI145
I0
sI146
I1
sI147
I1
sI148
I1
sI149
I0
sI150
I0
sI151
I0
sI152
I1
sI153
I0
sI154
I0
sI155
I1
sI156
I1
sI157
I1
sI158
I1
sI159
I0
sI160
I1
sI161
I1
sI162
I1
sI163
I1
sI164
I1
sI165
I0
sI166
I1
sI167
I0
sI168
I1
sI169
I0
sI170
I1
sI171
I0
sI172
I0
sI173
I0
sI174
I0
sI175
I1
sI176
I1
sI177
I1
sI178
I0
sI179
I1
sI180
I1
sI181
I1
sI182
I0
sI183
I1
sI184
I1
sI185
I0
sI186
I0
sI187
I0
sI188
I1
sI189
I1
sI190
I0
sI191
I1
sI192
I1
sI193
I1
sI194
I1
sI195
I0
sI196
I0
sI197
I1
sI198
I1
sI199
I1
sI200
I0
sI201
I0
sI202
I0
sI203
I0
sI204
I1
sI205
I0
sI206
I1
sI207
I0
sI208
I1
sI209
I1
sI210
I1
sI211
I0
sI212
I0
sI213
I0
sI214
I0
sI215
I1
sI216
I1
sI217
I0
sI218
I0
sI219
I1
sI220
I1
sI221
I0
sI222
I1
sI223
I0
sI224
I1
sI225
I1
sI226
I0
sI227
I0
sI228
I0
sI229
I0
sI230
I1
sI231
I0
sI232
I1
sI233
I1
sI234
I0
sI235
I1
sI236
I1
sI237
I1
sI238
I1
sI239
I0
sI240
I0
sI241
I1
sI242
I1
sI243
I1
sI244
I1
sI245
I1
sI246
I1
sI247
I1
sI248
I1
sI249
I1
sI250
I1
sI251
I0
sI252
I1
sI253
I1
sI254
I1
sI255
I0
ssI45
(dp49
I0
I1
sI1
I1
sI2
I1
sI3
I1
sI4
I1
sI5
I1
sI6
I1
sI7
I1
sI8
I0
sI9
I0
sI10
I0
sI11
I0
sI12
I1
sI13
I0
sI14
I1
sI15
I1
sI16
I1
sI17
I1
sI18
I1
sI19
I1
sI20
I0
sI21
I1
sI22
I1
sI23
I1
sI24
I0
sI25
I1
sI26
I1
sI27
I0
sI28
I1
sI29
I1
sI30
I1
sI31
I1
sI32
I1
sI33
I0
sI34
I0
sI35
I1
sI36
I1
sI37
I1
sI38
I1
sI39
I1
sI40
I0
sI41
I0
sI42
I0
sI43
I1
sI44
I0
sI45
I1
sI46
I1
sI47
I1
sI48
I0
sI49
I1
sI50
I0
sI51
I0
sI52
I1
sI53
I0
sI54
I1
sI55
I1
sI56
I1
sI57
I0
sI58
I0
sI59
I1
sI60
I1
sI61
I1
sI62
I1
sI63
I0
sI64
I0
sI65
I1
sI66
I1
sI67
I1
sI68
I1
sI69
I0
sI70
I1
sI71
I1
sI72
I0
sI73
I1
sI74
I0
sI75
I1
sI76
I1
sI77
I1
sI78
I0
sI79
I0
sI80
I0
sI81
I0
sI82
I1
sI83
I1
sI84
I1
sI85
I1
sI86
I1
sI87
I1
sI88
I1
sI89
I1
sI90
I1
sI91
I0
sI92
I0
sI93
I0
sI94
I0
sI95
I0
sI96
I1
sI97
I1
sI98
I1
sI99
I1
sI100
I0
sI101
I1
sI102
I1
sI103
I1
sI104
I1
sI105
I1
sI106
I1
sI107
I1
sI108
I0
sI109
I0
sI110
I0
sI111
I1
sI112
I1
sI113
I1
sI114
I1
sI115
I1
sI116
I1
sI117
I1
sI118
I1
sI119
I0
sI120
I1
sI121
I1
sI122
I0
sI123
I1
sI124
I1
sI125
I1
sI126
I0
sI127
I1
sI128
I1
sI129
I1
sI130
I0
sI131
I1
sI132
I1
sI133
I0
sI134
I0
sI135
I0
sI136
I0
sI137
I1
sI138
I1
sI139
I1
sI140
I1
sI141
I1
sI142
I1
sI143
I1
sI144
I1
sI145
I0
sI146
I1
sI147
I1
sI148
I1
sI149
I0
sI150
I0
sI151
I0
sI152
I1
sI153
I0
sI154
I0
sI155
I1
sI156
I1
sI157
I1
sI158
I1
sI159
I0
sI160
I1
sI161
I1
sI162
I1
sI163
I1
sI164
I1
sI165
I0
sI166
I1
sI167
I0
sI168
I1
sI169
I0
sI170
I1
sI171
I0
sI172
I0
sI173
I0
sI174
I0
sI175
I1
sI176
I1
sI177
I1
sI178
I0
sI179
I1
sI180
I1
sI181
I1
sI182
I0
sI183
I1
sI184
I1
sI185
I0
sI186
I0
sI187
I0
sI188
I1
sI189
I1
sI190
I0
sI191
I1
sI192
I1
sI193
I1
sI194
I1
sI195
I0
sI196
I0
sI197
I1
sI198
I1
sI199
I1
sI200
I0
sI201
I0
sI202
I0
sI203
I0
sI204
I1
sI205
I0
sI206
I1
sI207
I0
sI208
I1
sI209
I1
sI210
I1
sI211
I0
sI212
I0
sI213
I0
sI214
I0
sI215
I1
sI216
I1
sI217
I0
sI218
I0
sI219
I1
sI220
I1
sI221
I0
sI222
I1
sI223
I0
sI224
I1
sI225
I1
sI226
I0
sI227
I0
sI228
I0
sI229
I0
sI230
I1
sI231
I0
sI232
I1
sI233
I1
sI234
I0
sI235
I1
sI236
I1
sI237
I1
sI238
I1
sI239
I0
sI240
I0
sI241
I1
sI242
I1
sI243
I1
sI244
I1
sI245
I1
sI246
I1
sI247
I1
sI248
I1
sI249
I1
sI250
I1
sI251
I0
sI252
I1
sI253
I1
sI254
I1
sI255
I0
ssI46
(dp50
I0
I1
sI1
I1
sI2
I1
sI3
I1
sI4
I1
sI5
I1
sI6
I1
sI7
I1
sI8
I0
sI9
I0
sI10
I0
sI11
I0
sI12
I1
sI13
I0
sI14
I1
sI15
I1
sI16
I1
sI17
I1
sI18
I1
sI19
I1
sI20
I0
sI21
I1
sI22
I1
sI23
I1
sI24
I0
sI25
I1
sI26
I1
sI27
I0
sI28
I1
sI29
I1
sI30
I1
sI31
I1
sI32
I1
sI33
I0
sI34
I0
sI35
I1
sI36
I1
sI37
I1
sI38
I1
sI39
I1
sI40
I0
sI41
I0
sI42
I0
sI43
I1
sI44
I0
sI45
I1
sI46
I1
sI47
I1
sI48
I0
sI49
I1
sI50
I0
sI51
I0
sI52
I1
sI53
I0
sI54
I1
sI55
I1
sI56
I1
sI57
I0
sI58
I0
sI59
I1
sI60
I1
sI61
I1
sI62
I1
sI63
I0
sI64
I0
sI65
I1
sI66
I1
sI67
I1
sI68
I1
sI69
I0
sI70
I1
sI71
I1
sI72
I0
sI73
I1
sI74
I0
sI75
I1
sI76
I1
sI77
I1
sI78
I0
sI79
I0
sI80
I0
sI81
I0
sI82
I1
sI83
I1
sI84
I1
sI85
I1
sI86
I1
sI87
I1
sI88
I1
sI89
I1
sI90
I1
sI91
I0
sI92
I0
sI93
I0
sI94
I0
sI95
I0
sI96
I1
sI97
I1
sI98
I1
sI99
I1
sI100
I0
sI101
I1
sI102
I1
sI103
I1
sI104
I1
sI105
I1
sI106
I1
sI107
I1
sI108
I0
sI109
I0
sI110
I0
sI111
I1
sI112
I1
sI113
I1
sI114
I1
sI115
I1
sI116
I1
sI117
I1
sI118
I1
sI119
I0
sI120
I1
sI121
I1
sI122
I0
sI123
I1
sI124
I1
sI125
I1
sI126
I0
sI127
I1
sI128
I1
sI129
I1
sI130
I0
sI131
I1
sI132
I1
sI133
I0
sI134
I0
sI135
I0
sI136
I0
sI137
I1
sI138
I1
sI139
I1
sI140
I1
sI141
I1
sI142
I1
sI143
I1
sI144
I1
sI145
I0
sI146
I1
sI147
I1
sI148
I1
sI149
I0
sI150
I0
sI151
I0
sI152
I1
sI153
I0
sI154
I0
sI155
I1
sI156
I1
sI157
I1
sI158
I1
sI159
I0
sI160
I1
sI161
I1
sI162
I1
sI163
I1
sI164
I1
sI165
I0
sI166
I1
sI167
I0
sI168
I1
sI169
I0
sI170
I1
sI171
I0
sI172
I0
sI173
I0
sI174
I0
sI175
I1
sI176
I1
sI177
I1
sI178
I0
sI179
I1
sI180
I1
sI181
I1
sI182
I0
sI183
I1
sI184
I1
sI185
I0
sI186
I0
sI187
I0
sI188
I1
sI189
I1
sI190
I0
sI191
I1
sI192
I1
sI193
I1
sI194
I1
sI195
I0
sI196
I0
sI197
I1
sI198
I1
sI199
I1
sI200
I0
sI201
I0
sI202
I0
sI203
I0
sI204
I1
sI205
I0
sI206
I1
sI207
I0
sI208
I1
sI209
I1
sI210
I1
sI211
I0
sI212
I0
sI213
I0
sI214
I0
sI215
I1
sI216
I1
sI217
I0
sI218
I0
sI219
I1
sI220
I1
sI221
I0
sI222
I1
sI223
I0
sI224
I1
sI225
I1
sI226
I0
sI227
I0
sI228
I0
sI229
I0
sI230
I1
sI231
I0
sI232
I1
sI233
I1
sI234
I0
sI235
I1
sI236
I1
sI237
I1
sI238
I1
sI239
I0
sI240
I0
sI241
I1
sI242
I1
sI243
I1
sI244
I1
sI245
I1
sI246
I1
sI247
I1
sI248
I1
sI249
I1
sI250
I1
sI251
I0
sI252
I1
sI253
I1
sI254
I1
sI255
I0
ssI47
(dp51
I0
I1
sI1
I1
sI2
I1
sI3
I1
sI4
I1
sI5
I1
sI6
I1
sI7
I1
sI8
I0
sI9
I0
sI10
I0
sI11
I0
sI12
I1
sI13
I0
sI14
I1
sI15
I1
sI16
I1
sI17
I1
sI18
I1
sI19
I1
sI20
I0
sI21
I1
sI22
I1
sI23
I1
sI24
I0
sI25
I1
sI26
I1
sI27
I0
sI28
I1
sI29
I1
sI30
I1
sI31
I1
sI32
I1
sI33
I0
sI34
I0
sI35
I1
sI36
I1
sI37
I1
sI38
I1
sI39
I1
sI40
I0
sI41
I0
sI42
I0
sI43
I1
sI44
I0
sI45
I1
sI46
I1
sI47
I1
sI48
I0
sI49
I1
sI50
I0
sI51
I0
sI52
I1
sI53
I0
sI54
I1
sI55
I1
sI56
I1
sI57
I0
sI58
I0
sI59
I1
sI60
I1
sI61
I1
sI62
I1
sI63
I0
sI64
I0
sI65
I1
sI66
I1
sI67
I1
sI68
I1
sI69
I0
sI70
I1
sI71
I1
sI72
I0
sI73
I1
sI74
I0
sI75
I1
sI76
I1
sI77
I1
sI78
I0
sI79
I0
sI80
I0
sI81
I0
sI82
I1
sI83
I1
sI84
I1
sI85
I1
sI86
I1
sI87
I1
sI88
I1
sI89
I1
sI90
I1
sI91
I0
sI92
I0
sI93
I0
sI94
I0
sI95
I0
sI96
I1
sI97
I1
sI98
I1
sI99
I1
sI100
I0
sI101
I1
sI102
I1
sI103
I1
sI104
I1
sI105
I1
sI106
I1
sI107
I1
sI108
I0
sI109
I0
sI110
I0
sI111
I1
sI112
I1
sI113
I1
sI114
I1
sI115
I1
sI116
I1
sI117
I1
sI118
I1
sI119
I0
sI120
I1
sI121
I1
sI122
I0
sI123
I1
sI124
I1
sI125
I1
sI126
I0
sI127
I1
sI128
I1
sI129
I1
sI130
I0
sI131
I1
sI132
I1
sI133
I0
sI134
I0
sI135
I0
sI136
I0
sI137
I1
sI138
I1
sI139
I1
sI140
I1
sI141
I1
sI142
I1
sI143
I1
sI144
I1
sI145
I0
sI146
I1
sI147
I1
sI148
I1
sI149
I0
sI150
I0
sI151
I0
sI152
I1
sI153
I0
sI154
I0
sI155
I1
sI156
I1
sI157
I1
sI158
I1
sI159
I0
sI160
I1
sI161
I1
sI162
I1
sI163
I1
sI164
I1
sI165
I0
sI166
I1
sI167
I0
sI168
I1
sI169
I0
sI170
I1
sI171
I0
sI172
I0
sI173
I0
sI174
I0
sI175
I1
sI176
I1
sI177
I1
sI178
I0
sI179
I1
sI180
I1
sI181
I1
sI182
I0
sI183
I1
sI184
I1
sI185
I0
sI186
I0
sI187
I0
sI188
I1
sI189
I1
sI190
I0
sI191
I1
sI192
I1
sI193
I1
sI194
I1
sI195
I0
sI196
I0
sI197
I1
sI198
I1
sI199
I1
sI200
I0
sI201
I0
sI202
I0
sI203
I0
sI204
I1
sI205
I0
sI206
I1
sI207
I0
sI208
I1
sI209
I1
sI210
I1
sI211
I0
sI212
I0
sI213
I0
sI214
I0
sI215
I1
sI216
I1
sI217
I0
sI218
I0
sI219
I1
sI220
I1
sI221
I0
sI222
I1
sI223
I0
sI224
I1
sI225
I1
sI226
I0
sI227
I0
sI228
I0
sI229
I0
sI230
I1
sI231
I0
sI232
I1
sI233
I1
sI234
I0
sI235
I1
sI236
I1
sI237
I1
sI238
I1
sI239
I0
sI240
I0
sI241
I1
sI242
I1
sI243
I1
sI244
I1
sI245
I1
sI246
I1
sI247
I1
sI248
I1
sI249
I1
sI250
I1
sI251
I0
sI252
I1
sI253
I1
sI254
I1
sI255
I0
ssI48
(dp52
I0
I1
sI1
I1
sI2
I1
sI3
I1
sI4
I1
sI5
I1
sI6
I1
sI7
I1
sI8
I0
sI9
I0
sI10
I0
sI11
I0
sI12
I1
sI13
I0
sI14
I1
sI15
I1
sI16
I1
sI17
I1
sI18
I1
sI19
I1
sI20
I0
sI21
I1
sI22
I1
sI23
I1
sI24
I0
sI25
I1
sI26
I1
sI27
I0
sI28
I1
sI29
I1
sI30
I1
sI31
I1
sI32
I1
sI33
I0
sI34
I0
sI35
I1
sI36
I1
sI37
I1
sI38
I1
sI39
I1
sI40
I0
sI41
I0
sI42
I0
sI43
I1
sI44
I0
sI45
I1
sI46
I1
sI47
I1
sI48
I0
sI49
I1
sI50
I0
sI51
I0
sI52
I1
sI53
I0
sI54
I1
sI55
I1
sI56
I1
sI57
I0
sI58
I0
sI59
I1
sI60
I1
sI61
I1
sI62
I1
sI63
I0
sI64
I0
sI65
I1
sI66
I1
sI67
I1
sI68
I1
sI69
I0
sI70
I1
sI71
I1
sI72
I0
sI73
I1
sI74
I0
sI75
I1
sI76
I1
sI77
I1
sI78
I0
sI79
I0
sI80
I0
sI81
I0
sI82
I1
sI83
I1
sI84
I1
sI85
I1
sI86
I1
sI87
I1
sI88
I1
sI89
I1
sI90
I1
sI91
I0
sI92
I0
sI93
I0
sI94
I0
sI95
I0
sI96
I1
sI97
I1
sI98
I1
sI99
I1
sI100
I0
sI101
I1
sI102
I1
sI103
I1
sI104
I1
sI105
I1
sI106
I1
sI107
I1
sI108
I0
sI109
I0
sI110
I0
sI111
I1
sI112
I1
sI113
I1
sI114
I1
sI115
I1
sI116
I1
sI117
I1
sI118
I1
sI119
I0
sI120
I1
sI121
I1
sI122
I0
sI123
I1
sI124
I1
sI125
I1
sI126
I0
sI127
I1
sI128
I1
sI129
I1
sI130
I0
sI131
I1
sI132
I1
sI133
I0
sI134
I0
sI135
I0
sI136
I0
sI137
I1
sI138
I1
sI139
I1
sI140
I1
sI141
I1
sI142
I1
sI143
I1
sI144
I1
sI145
I0
sI146
I1
sI147
I1
sI148
I1
sI149
I0
sI150
I0
sI151
I0
sI152
I1
sI153
I0
sI154
I0
sI155
I1
sI156
I1
sI157
I1
sI158
I1
sI159
I0
sI160
I1
sI161
I1
sI162
I1
sI163
I1
sI164
I1
sI165
I0
sI166
I1
sI167
I0
sI168
I1
sI169
I0
sI170
I1
sI171
I0
sI172
I0
sI173
I0
sI174
I0
sI175
I1
sI176
I1
sI177
I1
sI178
I0
sI179
I1
sI180
I1
sI181
I1
sI182
I0
sI183
I1
sI184
I1
sI185
I0
sI186
I0
sI187
I0
sI188
I1
sI189
I1
sI190
I0
sI191
I1
sI192
I1
sI193
I1
sI194
I1
sI195
I0
sI196
I0
sI197
I1
sI198
I1
sI199
I1
sI200
I0
sI201
I0
sI202
I0
sI203
I0
sI204
I1
sI205
I0
sI206
I1
sI207
I0
sI208
I1
sI209
I1
sI210
I1
sI211
I0
sI212
I0
sI213
I0
sI214
I0
sI215
I1
sI216
I1
sI217
I0
sI218
I0
sI219
I1
sI220
I1
sI221
I0
sI222
I1
sI223
I0
sI224
I1
sI225
I1
sI226
I0
sI227
I0
sI228
I0
sI229
I0
sI230
I1
sI231
I0
sI232
I1
sI233
I1
sI234
I0
sI235
I1
sI236
I1
sI237
I1
sI238
I1
sI239
I0
sI240
I0
sI241
I1
sI242
I1
sI243
I1
sI244
I1
sI245
I1
sI246
I1
sI247
I1
sI248
I1
sI249
I1
sI250
I1
sI251
I0
sI252
I1
sI253
I1
sI254
I1
sI255
I0
ssI49
(dp53
I0
I1
sI1
I1
sI2
I1
sI3
I1
sI4
I1
sI5
I1
sI6
I1
sI7
I1
sI8
I0
sI9
I0
sI10
I0
sI11
I0
sI12
I1
sI13
I0
sI14
I1
sI15
I1
sI16
I1
sI17
I1
sI18
I1
sI19
I1
sI20
I0
sI21
I1
sI22
I1
sI23
I1
sI24
I0
sI25
I1
sI26
I1
sI27
I0
sI28
I1
sI29
I1
sI30
I1
sI31
I1
sI32
I1
sI33
I0
sI34
I0
sI35
I1
sI36
I1
sI37
I1
sI38
I1
sI39
I1
sI40
I0
sI41
I0
sI42
I0
sI43
I1
sI44
I0
sI45
I1
sI46
I1
sI47
I1
sI48
I0
sI49
I1
sI50
I0
sI51
I0
sI52
I1
sI53
I0
sI54
I1
sI55
I1
sI56
I1
sI57
I0
sI58
I0
sI59
I1
sI60
I1
sI61
I1
sI62
I1
sI63
I0
sI64
I0
sI65
I1
sI66
I1
sI67
I1
sI68
I1
sI69
I0
sI70
I1
sI71
I1
sI72
I0
sI73
I1
sI74
I0
sI75
I1
sI76
I1
sI77
I1
sI78
I0
sI79
I0
sI80
I0
sI81
I0
sI82
I1
sI83
I1
sI84
I1
sI85
I1
sI86
I1
sI87
I1
sI88
I1
sI89
I1
sI90
I1
sI91
I0
sI92
I0
sI93
I0
sI94
I0
sI95
I0
sI96
I1
sI97
I1
sI98
I1
sI99
I1
sI100
I0
sI101
I1
sI102
I1
sI103
I1
sI104
I1
sI105
I1
sI106
I1
sI107
I1
sI108
I0
sI109
I0
sI110
I0
sI111
I1
sI112
I1
sI113
I1
sI114
I1
sI115
I1
sI116
I1
sI117
I1
sI118
I1
sI119
I0
sI120
I1
sI121
I1
sI122
I0
sI123
I1
sI124
I1
sI125
I1
sI126
I0
sI127
I1
sI128
I1
sI129
I1
sI130
I0
sI131
I1
sI132
I1
sI133
I0
sI134
I0
sI135
I0
sI136
I0
sI137
I1
sI138
I1
sI139
I1
sI140
I1
sI141
I1
sI142
I1
sI143
I1
sI144
I1
sI145
I0
sI146
I1
sI147
I1
sI148
I1
sI149
I0
sI150
I0
sI151
I0
sI152
I1
sI153
I0
sI154
I0
sI155
I1
sI156
I1
sI157
I1
sI158
I1
sI159
I0
sI160
I1
sI161
I1
sI162
I1
sI163
I1
sI164
I1
sI165
I0
sI166
I1
sI167
I0
sI168
I1
sI169
I0
sI170
I1
sI171
I0
sI172
I0
sI173
I0
sI174
I0
sI175
I1
sI176
I1
sI177
I1
sI178
I0
sI179
I1
sI180
I1
sI181
I1
sI182
I0
sI183
I1
sI184
I1
sI185
I0
sI186
I0
sI187
I0
sI188
I1
sI189
I1
sI190
I0
sI191
I1
sI192
I1
sI193
I1
sI194
I1
sI195
I0
sI196
I0
sI197
I1
sI198
I1
sI199
I1
sI200
I0
sI201
I0
sI202
I0
sI203
I0
sI204
I1
sI205
I0
sI206
I1
sI207
I0
sI208
I1
sI209
I1
sI210
I1
sI211
I0
sI212
I0
sI213
I0
sI214
I0
sI215
I1
sI216
I1
sI217
I0
sI218
I0
sI219
I1
sI220
I1
sI221
I0
sI222
I1
sI223
I0
sI224
I1
sI225
I1
sI226
I0
sI227
I0
sI228
I0
sI229
I0
sI230
I1
sI231
I0
sI232
I1
sI233
I1
sI234
I0
sI235
I1
sI236
I1
sI237
I1
sI238
I1
sI239
I0
sI240
I0
sI241
I1
sI242
I1
sI243
I1
sI244
I1
sI245
I1
sI246
I1
sI247
I1
sI248
I1
sI249
I1
sI250
I1
sI251
I0
sI252
I1
sI253
I1
sI254
I1
sI255
I0
ssI50
(dp54
I0
I1
sI1
I1
sI2
I1
sI3
I1
sI4
I1
sI5
I1
sI6
I1
sI7
I1
sI8
I0
sI9
I0
sI10
I0
sI11
I0
sI12
I1
sI13
I0
sI14
I1
sI15
I1
sI16
I1
sI17
I1
sI18
I1
sI19
I1
sI20
I0
sI21
I1
sI22
I1
sI23
I1
sI24
I0
sI25
I1
sI26
I1
sI27
I0
sI28
I1
sI29
I1
sI30
I1
sI31
I1
sI32
I1
sI33
I0
sI34
I0
sI35
I1
sI36
I1
sI37
I1
sI38
I1
sI39
I1
sI40
I0
sI41
I0
sI42
I0
sI43
I1
sI44
I0
sI45
I1
sI46
I1
sI47
I1
sI48
I0
sI49
I1
sI50
I0
sI51
I0
sI52
I1
sI53
I0
sI54
I1
sI55
I1
sI56
I1
sI57
I0
sI58
I0
sI59
I1
sI60
I1
sI61
I1
sI62
I1
sI63
I0
sI64
I0
sI65
I1
sI66
I1
sI67
I1
sI68
I1
sI69
I0
sI70
I1
sI71
I1
sI72
I0
sI73
I1
sI74
I0
sI75
I1
sI76
I1
sI77
I1
sI78
I0
sI79
I0
sI80
I0
sI81
I0
sI82
I1
sI83
I1
sI84
I1
sI85
I1
sI86
I1
sI87
I1
sI88
I1
sI89
I1
sI90
I1
sI91
I0
sI92
I0
sI93
I0
sI94
I0
sI95
I0
sI96
I1
sI97
I1
sI98
I1
sI99
I1
sI100
I0
sI101
I1
sI102
I1
sI103
I1
sI104
I1
sI105
I1
sI106
I1
sI107
I1
sI108
I0
sI109
I0
sI110
I0
sI111
I1
sI112
I1
sI113
I1
sI114
I1
sI115
I1
sI116
I1
sI117
I1
sI118
I1
sI119
I0
sI120
I1
sI121
I1
sI122
I0
sI123
I1
sI124
I1
sI125
I1
sI126
I0
sI127
I1
sI128
I1
sI129
I1
sI130
I0
sI131
I1
sI132
I1
sI133
I0
sI134
I0
sI135
I0
sI136
I0
sI137
I1
sI138
I1
sI139
I1
sI140
I1
sI141
I1
sI142
I1
sI143
I1
sI144
I1
sI145
I0
sI146
I1
sI147
I1
sI148
I1
sI149
I0
sI150
I0
sI151
I0
sI152
I1
sI153
I0
sI154
I0
sI155
I1
sI156
I1
sI157
I1
sI158
I1
sI159
I0
sI160
I1
sI161
I1
sI162
I1
sI163
I1
sI164
I1
sI165
I0
sI166
I1
sI167
I0
sI168
I1
sI169
I0
sI170
I1
sI171
I0
sI172
I0
sI173
I0
sI174
I0
sI175
I1
sI176
I1
sI177
I1
sI178
I0
sI179
I1
sI180
I1
sI181
I1
sI182
I0
sI183
I1
sI184
I1
sI185
I0
sI186
I0
sI187
I0
sI188
I1
sI189
I1
sI190
I0
sI191
I1
sI192
I1
sI193
I1
sI194
I1
sI195
I0
sI196
I0
sI197
I1
sI198
I1
sI199
I1
sI200
I0
sI201
I0
sI202
I0
sI203
I0
sI204
I1
sI205
I0
sI206
I1
sI207
I0
sI208
I1
sI209
I1
sI210
I1
sI211
I0
sI212
I0
sI213
I0
sI214
I0
sI215
I1
sI216
I1
sI217
I0
sI218
I0
sI219
I1
sI220
I1
sI221
I0
sI222
I1
sI223
I0
sI224
I1
sI225
I1
sI226
I0
sI227
I0
sI228
I0
sI229
I0
sI230
I1
sI231
I0
sI232
I1
sI233
I1
sI234
I0
sI235
I1
sI236
I1
sI237
I1
sI238
I1
sI239
I0
sI240
I0
sI241
I1
sI242
I1
sI243
I1
sI244
I1
sI245
I1
sI246
I1
sI247
I1
sI248
I1
sI249
I1
sI250
I1
sI251
I0
sI252
I1
sI253
I1
sI254
I1
sI255
I0
ssI51
(dp55
I0
I1
sI1
I1
sI2
I1
sI3
I1
sI4
I1
sI5
I1
sI6
I1
sI7
I1
sI8
I0
sI9
I0
sI10
I0
sI11
I0
sI12
I1
sI13
I0
sI14
I1
sI15
I1
sI16
I1
sI17
I1
sI18
I1
sI19
I1
sI20
I0
sI21
I1
sI22
I1
sI23
I1
sI24
I0
sI25
I1
sI26
I1
sI27
I0
sI28
I1
sI29
I1
sI30
I1
sI31
I1
sI32
I1
sI33
I0
sI34
I0
sI35
I1
sI36
I1
sI37
I1
sI38
I1
sI39
I1
sI40
I0
sI41
I0
sI42
I0
sI43
I1
sI44
I0
sI45
I1
sI46
I1
sI47
I1
sI48
I0
sI49
I1
sI50
I0
sI51
I0
sI52
I1
sI53
I0
sI54
I1
sI55
I1
sI56
I1
sI57
I0
sI58
I0
sI59
I1
sI60
I1
sI61
I1
sI62
I1
sI63
I0
sI64
I0
sI65
I1
sI66
I1
sI67
I1
sI68
I1
sI69
I0
sI70
I1
sI71
I1
sI72
I0
sI73
I1
sI74
I0
sI75
I1
sI76
I1
sI77
I1
sI78
I0
sI79
I0
sI80
I0
sI81
I0
sI82
I1
sI83
I1
sI84
I1
sI85
I1
sI86
I1
sI87
I1
sI88
I1
sI89
I1
sI90
I1
sI91
I0
sI92
I0
sI93
I0
sI94
I0
sI95
I0
sI96
I1
sI97
I1
sI98
I1
sI99
I1
sI100
I0
sI101
I1
sI102
I1
sI103
I1
sI104
I1
sI105
I1
sI106
I1
sI107
I1
sI108
I0
sI109
I0
sI110
I0
sI111
I1
sI112
I1
sI113
I1
sI114
I1
sI115
I1
sI116
I1
sI117
I1
sI118
I1
sI119
I0
sI120
I1
sI121
I1
sI122
I0
sI123
I1
sI124
I1
sI125
I1
sI126
I0
sI127
I1
sI128
I1
sI129
I1
sI130
I0
sI131
I1
sI132
I1
sI133
I0
sI134
I0
sI135
I0
sI136
I0
sI137
I1
sI138
I1
sI139
I1
sI140
I1
sI141
I1
sI142
I1
sI143
I1
sI144
I1
sI145
I0
sI146
I1
sI147
I1
sI148
I1
sI149
I0
sI150
I0
sI151
I0
sI152
I1
sI153
I0
sI154
I0
sI155
I1
sI156
I1
sI157
I1
sI158
I1
sI159
I0
sI160
I1
sI161
I1
sI162
I1
sI163
I1
sI164
I1
sI165
I0
sI166
I1
sI167
I0
sI168
I1
sI169
I0
sI170
I1
sI171
I0
sI172
I0
sI173
I0
sI174
I0
sI175
I1
sI176
I1
sI177
I1
sI178
I0
sI179
I1
sI180
I1
sI181
I1
sI182
I0
sI183
I1
sI184
I1
sI185
I0
sI186
I0
sI187
I0
sI188
I1
sI189
I1
sI190
I0
sI191
I1
sI192
I1
sI193
I1
sI194
I1
sI195
I0
sI196
I0
sI197
I1
sI198
I1
sI199
I1
sI200
I0
sI201
I0
sI202
I0
sI203
I0
sI204
I1
sI205
I0
sI206
I1
sI207
I0
sI208
I1
sI209
I1
sI210
I1
sI211
I0
sI212
I0
sI213
I0
sI214
I0
sI215
I1
sI216
I1
sI217
I0
sI218
I0
sI219
I1
sI220
I1
sI221
I0
sI222
I1
sI223
I0
sI224
I1
sI225
I1
sI226
I0
sI227
I0
sI228
I0
sI229
I0
sI230
I1
sI231
I0
sI232
I1
sI233
I1
sI234
I0
sI235
I1
sI236
I1
sI237
I1
sI238
I1
sI239
I0
sI240
I0
sI241
I1
sI242
I1
sI243
I1
sI244
I1
sI245
I1
sI246
I1
sI247
I1
sI248
I1
sI249
I1
sI250
I1
sI251
I0
sI252
I1
sI253
I1
sI254
I1
sI255
I0
ssI52
(dp56
I0
I1
sI1
I1
sI2
I1
sI3
I1
sI4
I1
sI5
I1
sI6
I1
sI7
I1
sI8
I0
sI9
I0
sI10
I0
sI11
I0
sI12
I1
sI13
I0
sI14
I1
sI15
I1
sI16
I1
sI17
I1
sI18
I1
sI19
I1
sI20
I0
sI21
I1
sI22
I1
sI23
I1
sI24
I0
sI25
I1
sI26
I1
sI27
I0
sI28
I1
sI29
I1
sI30
I1
sI31
I1
sI32
I1
sI33
I0
sI34
I0
sI35
I1
sI36
I1
sI37
I1
sI38
I1
sI39
I1
sI40
I0
sI41
I0
sI42
I0
sI43
I1
sI44
I0
sI45
I1
sI46
I1
sI47
I1
sI48
I0
sI49
I1
sI50
I0
sI51
I0
sI52
I1
sI53
I0
sI54
I1
sI55
I1
sI56
I1
sI57
I0
sI58
I0
sI59
I1
sI60
I1
sI61
I1
sI62
I1
sI63
I0
sI64
I0
sI65
I1
sI66
I1
sI67
I1
sI68
I1
sI69
I0
sI70
I1
sI71
I1
sI72
I0
sI73
I1
sI74
I0
sI75
I1
sI76
I1
sI77
I1
sI78
I0
sI79
I0
sI80
I0
sI81
I0
sI82
I1
sI83
I1
sI84
I1
sI85
I1
sI86
I1
sI87
I1
sI88
I1
sI89
I1
sI90
I1
sI91
I0
sI92
I0
sI93
I0
sI94
I0
sI95
I0
sI96
I1
sI97
I1
sI98
I1
sI99
I1
sI100
I0
sI101
I1
sI102
I1
sI103
I1
sI104
I1
sI105
I1
sI106
I1
sI107
I1
sI108
I0
sI109
I0
sI110
I0
sI111
I1
sI112
I1
sI113
I1
sI114
I1
sI115
I1
sI116
I1
sI117
I1
sI118
I1
sI119
I0
sI120
I1
sI121
I1
sI122
I0
sI123
I1
sI124
I1
sI125
I1
sI126
I0
sI127
I1
sI128
I1
sI129
I1
sI130
I0
sI131
I1
sI132
I1
sI133
I0
sI134
I0
sI135
I0
sI136
I0
sI137
I1
sI138
I1
sI139
I1
sI140
I1
sI141
I1
sI142
I1
sI143
I1
sI144
I1
sI145
I0
sI146
I1
sI147
I1
sI148
I1
sI149
I0
sI150
I0
sI151
I0
sI152
I1
sI153
I0
sI154
I0
sI155
I1
sI156
I1
sI157
I1
sI158
I1
sI159
I0
sI160
I1
sI161
I1
sI162
I1
sI163
I1
sI164
I1
sI165
I0
sI166
I1
sI167
I0
sI168
I1
sI169
I0
sI170
I1
sI171
I0
sI172
I0
sI173
I0
sI174
I0
sI175
I1
sI176
I1
sI177
I1
sI178
I0
sI179
I1
sI180
I1
sI181
I1
sI182
I0
sI183
I1
sI184
I1
sI185
I0
sI186
I0
sI187
I0
sI188
I1
sI189
I1
sI190
I0
sI191
I1
sI192
I1
sI193
I1
sI194
I1
sI195
I0
sI196
I0
sI197
I1
sI198
I1
sI199
I1
sI200
I0
sI201
I0
sI202
I0
sI203
I0
sI204
I1
sI205
I0
sI206
I1
sI207
I0
sI208
I1
sI209
I1
sI210
I1
sI211
I0
sI212
I0
sI213
I0
sI214
I0
sI215
I1
sI216
I1
sI217
I0
sI218
I0
sI219
I1
sI220
I1
sI221
I0
sI222
I1
sI223
I0
sI224
I1
sI225
I1
sI226
I0
sI227
I0
sI228
I0
sI229
I0
sI230
I1
sI231
I0
sI232
I1
sI233
I1
sI234
I0
sI235
I1
sI236
I1
sI237
I1
sI238
I1
sI239
I0
sI240
I0
sI241
I1
sI242
I1
sI243
I1
sI244
I1
sI245
I1
sI246
I1
sI247
I1
sI248
I1
sI249
I1
sI250
I1
sI251
I0
sI252
I1
sI253
I1
sI254
I1
sI255
I0
ssI53
(dp57
I0
I1
sI1
I1
sI2
I1
sI3
I1
sI4
I1
sI5
I1
sI6
I1
sI7
I1
sI8
I0
sI9
I0
sI10
I0
sI11
I0
sI12
I1
sI13
I0
sI14
I1
sI15
I1
sI16
I1
sI17
I1
sI18
I1
sI19
I1
sI20
I0
sI21
I1
sI22
I1
sI23
I1
sI24
I0
sI25
I1
sI26
I1
sI27
I0
sI28
I1
sI29
I1
sI30
I1
sI31
I1
sI32
I1
sI33
I0
sI34
I0
sI35
I1
sI36
I1
sI37
I1
sI38
I1
sI39
I1
sI40
I0
sI41
I0
sI42
I0
sI43
I1
sI44
I0
sI45
I1
sI46
I1
sI47
I1
sI48
I0
sI49
I1
sI50
I0
sI51
I0
sI52
I1
sI53
I0
sI54
I1
sI55
I1
sI56
I1
sI57
I0
sI58
I0
sI59
I1
sI60
I1
sI61
I1
sI62
I1
sI63
I0
sI64
I0
sI65
I1
sI66
I1
sI67
I1
sI68
I1
sI69
I0
sI70
I1
sI71
I1
sI72
I0
sI73
I1
sI74
I0
sI75
I1
sI76
I1
sI77
I1
sI78
I0
sI79
I0
sI80
I0
sI81
I0
sI82
I1
sI83
I1
sI84
I1
sI85
I1
sI86
I1
sI87
I1
sI88
I1
sI89
I1
sI90
I1
sI91
I0
sI92
I0
sI93
I0
sI94
I0
sI95
I0
sI96
I1
sI97
I1
sI98
I1
sI99
I1
sI100
I0
sI101
I1
sI102
I1
sI103
I1
sI104
I1
sI105
I1
sI106
I1
sI107
I1
sI108
I0
sI109
I0
sI110
I0
sI111
I1
sI112
I1
sI113
I1
sI114
I1
sI115
I1
sI116
I1
sI117
I1
sI118
I1
sI119
I0
sI120
I1
sI121
I1
sI122
I0
sI123
I1
sI124
I1
sI125
I1
sI126
I0
sI127
I1
sI128
I1
sI129
I1
sI130
I0
sI131
I1
sI132
I1
sI133
I0
sI134
I0
sI135
I0
sI136
I0
sI137
I1
sI138
I1
sI139
I1
sI140
I1
sI141
I1
sI142
I1
sI143
I1
sI144
I1
sI145
I0
sI146
I1
sI147
I1
sI148
I1
sI149
I0
sI150
I0
sI151
I0
sI152
I1
sI153
I0
sI154
I0
sI155
I1
sI156
I1
sI157
I1
sI158
I1
sI159
I0
sI160
I1
sI161
I1
sI162
I1
sI163
I1
sI164
I1
sI165
I0
sI166
I1
sI167
I0
sI168
I1
sI169
I0
sI170
I1
sI171
I0
sI172
I0
sI173
I0
sI174
I0
sI175
I1
sI176
I1
sI177
I1
sI178
I0
sI179
I1
sI180
I1
sI181
I1
sI182
I0
sI183
I1
sI184
I1
sI185
I0
sI186
I0
sI187
I0
sI188
I1
sI189
I1
sI190
I0
sI191
I1
sI192
I1
sI193
I1
sI194
I1
sI195
I0
sI196
I0
sI197
I1
sI198
I1
sI199
I1
sI200
I0
sI201
I0
sI202
I0
sI203
I0
sI204
I1
sI205
I0
sI206
I1
sI207
I0
sI208
I1
sI209
I1
sI210
I1
sI211
I0
sI212
I0
sI213
I0
sI214
I0
sI215
I1
sI216
I1
sI217
I0
sI218
I0
sI219
I1
sI220
I1
sI221
I0
sI222
I1
sI223
I0
sI224
I1
sI225
I1
sI226
I0
sI227
I0
sI228
I0
sI229
I0
sI230
I1
sI231
I0
sI232
I1
sI233
I1
sI234
I0
sI235
I1
sI236
I1
sI237
I1
sI238
I1
sI239
I0
sI240
I0
sI241
I1
sI242
I1
sI243
I1
sI244
I1
sI245
I1
sI246
I1
sI247
I1
sI248
I1
sI249
I1
sI250
I1
sI251
I0
sI252
I1
sI253
I1
sI254
I1
sI255
I0
ssI54
(dp58
I0
I1
sI1
I1
sI2
I1
sI3
I1
sI4
I1
sI5
I1
sI6
I1
sI7
I1
sI8
I0
sI9
I0
sI10
I0
sI11
I0
sI12
I1
sI13
I0
sI14
I1
sI15
I1
sI16
I1
sI17
I1
sI18
I1
sI19
I1
sI20
I0
sI21
I1
sI22
I1
sI23
I1
sI24
I0
sI25
I1
sI26
I1
sI27
I0
sI28
I1
sI29
I1
sI30
I1
sI31
I1
sI32
I1
sI33
I0
sI34
I0
sI35
I1
sI36
I1
sI37
I1
sI38
I1
sI39
I1
sI40
I0
sI41
I0
sI42
I0
sI43
I1
sI44
I0
sI45
I1
sI46
I1
sI47
I1
sI48
I0
sI49
I1
sI50
I0
sI51
I0
sI52
I1
sI53
I0
sI54
I1
sI55
I1
sI56
I1
sI57
I0
sI58
I0
sI59
I1
sI60
I1
sI61
I1
sI62
I1
sI63
I0
sI64
I0
sI65
I1
sI66
I1
sI67
I1
sI68
I1
sI69
I0
sI70
I1
sI71
I1
sI72
I0
sI73
I1
sI74
I0
sI75
I1
sI76
I1
sI77
I1
sI78
I0
sI79
I0
sI80
I0
sI81
I0
sI82
I1
sI83
I1
sI84
I1
sI85
I1
sI86
I1
sI87
I1
sI88
I1
sI89
I1
sI90
I1
sI91
I0
sI92
I0
sI93
I0
sI94
I0
sI95
I0
sI96
I1
sI97
I1
sI98
I1
sI99
I1
sI100
I0
sI101
I1
sI102
I1
sI103
I1
sI104
I1
sI105
I1
sI106
I1
sI107
I1
sI108
I0
sI109
I0
sI110
I0
sI111
I1
sI112
I1
sI113
I1
sI114
I1
sI115
I1
sI116
I1
sI117
I1
sI118
I1
sI119
I0
sI120
I1
sI121
I1
sI122
I0
sI123
I1
sI124
I1
sI125
I1
sI126
I0
sI127
I1
sI128
I1
sI129
I1
sI130
I0
sI131
I1
sI132
I1
sI133
I0
sI134
I0
sI135
I0
sI136
I0
sI137
I1
sI138
I1
sI139
I1
sI140
I1
sI141
I1
sI142
I1
sI143
I1
sI144
I1
sI145
I0
sI146
I1
sI147
I1
sI148
I1
sI149
I0
sI150
I0
sI151
I0
sI152
I1
sI153
I0
sI154
I0
sI155
I1
sI156
I1
sI157
I1
sI158
I1
sI159
I0
sI160
I1
sI161
I1
sI162
I1
sI163
I1
sI164
I1
sI165
I0
sI166
I1
sI167
I0
sI168
I1
sI169
I0
sI170
I1
sI171
I0
sI172
I0
sI173
I0
sI174
I0
sI175
I1
sI176
I1
sI177
I1
sI178
I0
sI179
I1
sI180
I1
sI181
I1
sI182
I0
sI183
I1
sI184
I1
sI185
I0
sI186
I0
sI187
I0
sI188
I1
sI189
I1
sI190
I0
sI191
I1
sI192
I1
sI193
I1
sI194
I1
sI195
I0
sI196
I0
sI197
I1
sI198
I1
sI199
I1
sI200
I0
sI201
I0
sI202
I0
sI203
I0
sI204
I1
sI205
I0
sI206
I1
sI207
I0
sI208
I1
sI209
I1
sI210
I1
sI211
I0
sI212
I0
sI213
I0
sI214
I0
sI215
I1
sI216
I1
sI217
I0
sI218
I0
sI219
I1
sI220
I1
sI221
I0
sI222
I1
sI223
I0
sI224
I1
sI225
I1
sI226
I0
sI227
I0
sI228
I0
sI229
I0
sI230
I1
sI231
I0
sI232
I1
sI233
I1
sI234
I0
sI235
I1
sI236
I1
sI237
I1
sI238
I1
sI239
I0
sI240
I0
sI241
I1
sI242
I1
sI243
I1
sI244
I1
sI245
I1
sI246
I1
sI247
I1
sI248
I1
sI249
I1
sI250
I1
sI251
I0
sI252
I1
sI253
I1
sI254
I1
sI255
I0
ssI55
(dp59
I0
I1
sI1
I1
sI2
I1
sI3
I1
sI4
I1
sI5
I1
sI6
I1
sI7
I1
sI8
I0
sI9
I0
sI10
I0
sI11
I0
sI12
I1
sI13
I0
sI14
I1
sI15
I1
sI16
I1
sI17
I1
sI18
I1
sI19
I1
sI20
I0
sI21
I1
sI22
I1
sI23
I1
sI24
I0
sI25
I1
sI26
I1
sI27
I0
sI28
I1
sI29
I1
sI30
I1
sI31
I1
sI32
I1
sI33
I0
sI34
I0
sI35
I1
sI36
I1
sI37
I1
sI38
I1
sI39
I1
sI40
I0
sI41
I0
sI42
I0
sI43
I1
sI44
I0
sI45
I1
sI46
I1
sI47
I1
sI48
I0
sI49
I1
sI50
I0
sI51
I0
sI52
I1
sI53
I0
sI54
I1
sI55
I1
sI56
I1
sI57
I0
sI58
I0
sI59
I1
sI60
I1
sI61
I1
sI62
I1
sI63
I0
sI64
I0
sI65
I1
sI66
I1
sI67
I1
sI68
I1
sI69
I0
sI70
I1
sI71
I1
sI72
I0
sI73
I1
sI74
I0
sI75
I1
sI76
I1
sI77
I1
sI78
I0
sI79
I0
sI80
I0
sI81
I0
sI82
I1
sI83
I1
sI84
I1
sI85
I1
sI86
I1
sI87
I1
sI88
I1
sI89
I1
sI90
I1
sI91
I0
sI92
I0
sI93
I0
sI94
I0
sI95
I0
sI96
I1
sI97
I1
sI98
I1
sI99
I1
sI100
I0
sI101
I1
sI102
I1
sI103
I1
sI104
I1
sI105
I1
sI106
I1
sI107
I1
sI108
I0
sI109
I0
sI110
I0
sI111
I1
sI112
I1
sI113
I1
sI114
I1
sI115
I1
sI116
I1
sI117
I1
sI118
I1
sI119
I0
sI120
I1
sI121
I1
sI122
I0
sI123
I1
sI124
I1
sI125
I1
sI126
I0
sI127
I1
sI128
I1
sI129
I1
sI130
I0
sI131
I1
sI132
I1
sI133
I0
sI134
I0
sI135
I0
sI136
I0
sI137
I1
sI138
I1
sI139
I1
sI140
I1
sI141
I1
sI142
I1
sI143
I1
sI144
I1
sI145
I0
sI146
I1
sI147
I1
sI148
I1
sI149
I0
sI150
I0
sI151
I0
sI152
I1
sI153
I0
sI154
I0
sI155
I1
sI156
I1
sI157
I1
sI158
I1
sI159
I0
sI160
I1
sI161
I1
sI162
I1
sI163
I1
sI164
I1
sI165
I0
sI166
I1
sI167
I0
sI168
I1
sI169
I0
sI170
I1
sI171
I0
sI172
I0
sI173
I0
sI174
I0
sI175
I1
sI176
I1
sI177
I1
sI178
I0
sI179
I1
sI180
I1
sI181
I1
sI182
I0
sI183
I1
sI184
I1
sI185
I0
sI186
I0
sI187
I0
sI188
I1
sI189
I1
sI190
I0
sI191
I1
sI192
I1
sI193
I1
sI194
I1
sI195
I0
sI196
I0
sI197
I1
sI198
I1
sI199
I1
sI200
I0
sI201
I0
sI202
I0
sI203
I0
sI204
I1
sI205
I0
sI206
I1
sI207
I0
sI208
I1
sI209
I1
sI210
I1
sI211
I0
sI212
I0
sI213
I0
sI214
I0
sI215
I1
sI216
I1
sI217
I0
sI218
I0
sI219
I1
sI220
I1
sI221
I0
sI222
I1
sI223
I0
sI224
I1
sI225
I1
sI226
I0
sI227
I0
sI228
I0
sI229
I0
sI230
I1
sI231
I0
sI232
I1
sI233
I1
sI234
I0
sI235
I1
sI236
I1
sI237
I1
sI238
I1
sI239
I0
sI240
I0
sI241
I1
sI242
I1
sI243
I1
sI244
I1
sI245
I1
sI246
I1
sI247
I1
sI248
I1
sI249
I1
sI250
I1
sI251
I0
sI252
I1
sI253
I1
sI254
I1
sI255
I0
ssI56
(dp60
I0
I1
sI1
I1
sI2
I1
sI3
I1
sI4
I1
sI5
I1
sI6
I1
sI7
I1
sI8
I0
sI9
I0
sI10
I0
sI11
I0
sI12
I1
sI13
I0
sI14
I1
sI15
I1
sI16
I1
sI17
I1
sI18
I1
sI19
I1
sI20
I0
sI21
I1
sI22
I1
sI23
I1
sI24
I0
sI25
I1
sI26
I1
sI27
I0
sI28
I1
sI29
I1
sI30
I1
sI31
I1
sI32
I1
sI33
I0
sI34
I0
sI35
I1
sI36
I1
sI37
I1
sI38
I1
sI39
I1
sI40
I0
sI41
I0
sI42
I0
sI43
I1
sI44
I0
sI45
I1
sI46
I1
sI47
I1
sI48
I0
sI49
I1
sI50
I0
sI51
I0
sI52
I1
sI53
I0
sI54
I1
sI55
I1
sI56
I1
sI57
I0
sI58
I0
sI59
I1
sI60
I1
sI61
I1
sI62
I1
sI63
I0
sI64
I0
sI65
I1
sI66
I1
sI67
I1
sI68
I1
sI69
I0
sI70
I1
sI71
I1
sI72
I0
sI73
I1
sI74
I0
sI75
I1
sI76
I1
sI77
I1
sI78
I0
sI79
I0
sI80
I0
sI81
I0
sI82
I1
sI83
I1
sI84
I1
sI85
I1
sI86
I1
sI87
I1
sI88
I1
sI89
I1
sI90
I1
sI91
I0
sI92
I0
sI93
I0
sI94
I0
sI95
I0
sI96
I1
sI97
I1
sI98
I1
sI99
I1
sI100
I0
sI101
I1
sI102
I1
sI103
I1
sI104
I1
sI105
I1
sI106
I1
sI107
I1
sI108
I0
sI109
I0
sI110
I0
sI111
I1
sI112
I1
sI113
I1
sI114
I1
sI115
I1
sI116
I1
sI117
I1
sI118
I1
sI119
I0
sI120
I1
sI121
I1
sI122
I0
sI123
I1
sI124
I1
sI125
I1
sI126
I0
sI127
I1
sI128
I1
sI129
I1
sI130
I0
sI131
I1
sI132
I1
sI133
I0
sI134
I0
sI135
I0
sI136
I0
sI137
I1
sI138
I1
sI139
I1
sI140
I1
sI141
I1
sI142
I1
sI143
I1
sI144
I1
sI145
I0
sI146
I1
sI147
I1
sI148
I1
sI149
I0
sI150
I0
sI151
I0
sI152
I1
sI153
I0
sI154
I0
sI155
I1
sI156
I1
sI157
I1
sI158
I1
sI159
I0
sI160
I1
sI161
I1
sI162
I1
sI163
I1
sI164
I1
sI165
I0
sI166
I1
sI167
I0
sI168
I1
sI169
I0
sI170
I1
sI171
I0
sI172
I0
sI173
I0
sI174
I0
sI175
I1
sI176
I1
sI177
I1
sI178
I0
sI179
I1
sI180
I1
sI181
I1
sI182
I0
sI183
I1
sI184
I1
sI185
I0
sI186
I0
sI187
I0
sI188
I1
sI189
I1
sI190
I0
sI191
I1
sI192
I1
sI193
I1
sI194
I1
sI195
I0
sI196
I0
sI197
I1
sI198
I1
sI199
I1
sI200
I0
sI201
I0
sI202
I0
sI203
I0
sI204
I1
sI205
I0
sI206
I1
sI207
I0
sI208
I1
sI209
I1
sI210
I1
sI211
I0
sI212
I0
sI213
I0
sI214
I0
sI215
I1
sI216
I1
sI217
I0
sI218
I0
sI219
I1
sI220
I1
sI221
I0
sI222
I1
sI223
I0
sI224
I1
sI225
I1
sI226
I0
sI227
I0
sI228
I0
sI229
I0
sI230
I1
sI231
I0
sI232
I1
sI233
I1
sI234
I0
sI235
I1
sI236
I1
sI237
I1
sI238
I1
sI239
I0
sI240
I0
sI241
I1
sI242
I1
sI243
I1
sI244
I1
sI245
I1
sI246
I1
sI247
I1
sI248
I1
sI249
I1
sI250
I1
sI251
I0
sI252
I1
sI253
I1
sI254
I1
sI255
I0
ssI57
(dp61
I0
I1
sI1
I1
sI2
I1
sI3
I1
sI4
I1
sI5
I1
sI6
I1
sI7
I1
sI8
I0
sI9
I0
sI10
I0
sI11
I0
sI12
I1
sI13
I0
sI14
I1
sI15
I1
sI16
I1
sI17
I1
sI18
I1
sI19
I1
sI20
I0
sI21
I1
sI22
I1
sI23
I1
sI24
I0
sI25
I1
sI26
I1
sI27
I0
sI28
I1
sI29
I1
sI30
I1
sI31
I1
sI32
I1
sI33
I0
sI34
I0
sI35
I1
sI36
I1
sI37
I1
sI38
I1
sI39
I1
sI40
I0
sI41
I0
sI42
I0
sI43
I1
sI44
I0
sI45
I1
sI46
I1
sI47
I1
sI48
I0
sI49
I1
sI50
I0
sI51
I0
sI52
I1
sI53
I0
sI54
I1
sI55
I1
sI56
I1
sI57
I0
sI58
I0
sI59
I1
sI60
I1
sI61
I1
sI62
I1
sI63
I0
sI64
I0
sI65
I1
sI66
I1
sI67
I1
sI68
I1
sI69
I0
sI70
I1
sI71
I1
sI72
I0
sI73
I1
sI74
I0
sI75
I1
sI76
I1
sI77
I1
sI78
I0
sI79
I0
sI80
I0
sI81
I0
sI82
I1
sI83
I1
sI84
I1
sI85
I1
sI86
I1
sI87
I1
sI88
I1
sI89
I1
sI90
I1
sI91
I0
sI92
I0
sI93
I0
sI94
I0
sI95
I0
sI96
I1
sI97
I1
sI98
I1
sI99
I1
sI100
I0
sI101
I1
sI102
I1
sI103
I1
sI104
I1
sI105
I1
sI106
I1
sI107
I1
sI108
I0
sI109
I0
sI110
I0
sI111
I1
sI112
I1
sI113
I1
sI114
I1
sI115
I1
sI116
I1
sI117
I1
sI118
I1
sI119
I0
sI120
I1
sI121
I1
sI122
I0
sI123
I1
sI124
I1
sI125
I1
sI126
I0
sI127
I1
sI128
I1
sI129
I1
sI130
I0
sI131
I1
sI132
I1
sI133
I0
sI134
I0
sI135
I0
sI136
I0
sI137
I1
sI138
I1
sI139
I1
sI140
I1
sI141
I1
sI142
I1
sI143
I1
sI144
I1
sI145
I0
sI146
I1
sI147
I1
sI148
I1
sI149
I0
sI150
I0
sI151
I0
sI152
I1
sI153
I0
sI154
I0
sI155
I1
sI156
I1
sI157
I1
sI158
I1
sI159
I0
sI160
I1
sI161
I1
sI162
I1
sI163
I1
sI164
I1
sI165
I0
sI166
I1
sI167
I0
sI168
I1
sI169
I0
sI170
I1
sI171
I0
sI172
I0
sI173
I0
sI174
I0
sI175
I1
sI176
I1
sI177
I1
sI178
I0
sI179
I1
sI180
I1
sI181
I1
sI182
I0
sI183
I1
sI184
I1
sI185
I0
sI186
I0
sI187
I0
sI188
I1
sI189
I1
sI190
I0
sI191
I1
sI192
I1
sI193
I1
sI194
I1
sI195
I0
sI196
I0
sI197
I1
sI198
I1
sI199
I1
sI200
I0
sI201
I0
sI202
I0
sI203
I0
sI204
I1
sI205
I0
sI206
I1
sI207
I0
sI208
I1
sI209
I1
sI210
I1
sI211
I0
sI212
I0
sI213
I0
sI214
I0
sI215
I1
sI216
I1
sI217
I0
sI218
I0
sI219
I1
sI220
I1
sI221
I0
sI222
I1
sI223
I0
sI224
I1
sI225
I1
sI226
I0
sI227
I0
sI228
I0
sI229
I0
sI230
I1
sI231
I0
sI232
I1
sI233
I1
sI234
I0
sI235
I1
sI236
I1
sI237
I1
sI238
I1
sI239
I0
sI240
I0
sI241
I1
sI242
I1
sI243
I1
sI244
I1
sI245
I1
sI246
I1
sI247
I1
sI248
I1
sI249
I1
sI250
I1
sI251
I0
sI252
I1
sI253
I1
sI254
I1
sI255
I0
ssI58
(dp62
I0
I1
sI1
I1
sI2
I1
sI3
I1
sI4
I1
sI5
I1
sI6
I1
sI7
I1
sI8
I0
sI9
I0
sI10
I0
sI11
I0
sI12
I1
sI13
I0
sI14
I1
sI15
I1
sI16
I1
sI17
I1
sI18
I1
sI19
I1
sI20
I0
sI21
I1
sI22
I1
sI23
I1
sI24
I0
sI25
I1
sI26
I1
sI27
I0
sI28
I1
sI29
I1
sI30
I1
sI31
I1
sI32
I1
sI33
I0
sI34
I0
sI35
I1
sI36
I1
sI37
I1
sI38
I1
sI39
I1
sI40
I0
sI41
I0
sI42
I0
sI43
I1
sI44
I0
sI45
I1
sI46
I1
sI47
I1
sI48
I0
sI49
I1
sI50
I0
sI51
I0
sI52
I1
sI53
I0
sI54
I1
sI55
I1
sI56
I1
sI57
I0
sI58
I0
sI59
I1
sI60
I1
sI61
I1
sI62
I1
sI63
I0
sI64
I0
sI65
I1
sI66
I1
sI67
I1
sI68
I1
sI69
I0
sI70
I1
sI71
I1
sI72
I0
sI73
I1
sI74
I0
sI75
I1
sI76
I1
sI77
I1
sI78
I0
sI79
I0
sI80
I0
sI81
I0
sI82
I1
sI83
I1
sI84
I1
sI85
I1
sI86
I1
sI87
I1
sI88
I1
sI89
I1
sI90
I1
sI91
I0
sI92
I0
sI93
I0
sI94
I0
sI95
I0
sI96
I1
sI97
I1
sI98
I1
sI99
I1
sI100
I0
sI101
I1
sI102
I1
sI103
I1
sI104
I1
sI105
I1
sI106
I1
sI107
I1
sI108
I0
sI109
I0
sI110
I0
sI111
I1
sI112
I1
sI113
I1
sI114
I1
sI115
I1
sI116
I1
sI117
I1
sI118
I1
sI119
I0
sI120
I1
sI121
I1
sI122
I0
sI123
I1
sI124
I1
sI125
I1
sI126
I0
sI127
I1
sI128
I1
sI129
I1
sI130
I0
sI131
I1
sI132
I1
sI133
I0
sI134
I0
sI135
I0
sI136
I0
sI137
I1
sI138
I1
sI139
I1
sI140
I1
sI141
I1
sI142
I1
sI143
I1
sI144
I1
sI145
I0
sI146
I1
sI147
I1
sI148
I1
sI149
I0
sI150
I0
sI151
I0
sI152
I1
sI153
I0
sI154
I0
sI155
I1
sI156
I1
sI157
I1
sI158
I1
sI159
I0
sI160
I1
sI161
I1
sI162
I1
sI163
I1
sI164
I1
sI165
I0
sI166
I1
sI167
I0
sI168
I1
sI169
I0
sI170
I1
sI171
I0
sI172
I0
sI173
I0
sI174
I0
sI175
I1
sI176
I1
sI177
I1
sI178
I0
sI179
I1
sI180
I1
sI181
I1
sI182
I0
sI183
I1
sI184
I1
sI185
I0
sI186
I0
sI187
I0
sI188
I1
sI189
I1
sI190
I0
sI191
I1
sI192
I1
sI193
I1
sI194
I1
sI195
I0
sI196
I0
sI197
I1
sI198
I1
sI199
I1
sI200
I0
sI201
I0
sI202
I0
sI203
I0
sI204
I1
sI205
I0
sI206
I1
sI207
I0
sI208
I1
sI209
I1
sI210
I1
sI211
I0
sI212
I0
sI213
I0
sI214
I0
sI215
I1
sI216
I1
sI217
I0
sI218
I0
sI219
I1
sI220
I1
sI221
I0
sI222
I1
sI223
I0
sI224
I1
sI225
I1
sI226
I0
sI227
I0
sI228
I0
sI229
I0
sI230
I1
sI231
I0
sI232
I1
sI233
I1
sI234
I0
sI235
I1
sI236
I1
sI237
I1
sI238
I1
sI239
I0
sI240
I0
sI241
I1
sI242
I1
sI243
I1
sI244
I1
sI245
I1
sI246
I1
sI247
I1
sI248
I1
sI249
I1
sI250
I1
sI251
I0
sI252
I1
sI253
I1
sI254
I1
sI255
I0
ssI59
(dp63
I0
I1
sI1
I1
sI2
I1
sI3
I1
sI4
I1
sI5
I1
sI6
I1
sI7
I1
sI8
I0
sI9
I0
sI10
I0
sI11
I0
sI12
I1
sI13
I0
sI14
I1
sI15
I1
sI16
I1
sI17
I1
sI18
I1
sI19
I1
sI20
I0
sI21
I1
sI22
I1
sI23
I1
sI24
I0
sI25
I1
sI26
I1
sI27
I0
sI28
I1
sI29
I1
sI30
I1
sI31
I1
sI32
I1
sI33
I0
sI34
I0
sI35
I1
sI36
I1
sI37
I1
sI38
I1
sI39
I1
sI40
I0
sI41
I0
sI42
I0
sI43
I1
sI44
I0
sI45
I1
sI46
I1
sI47
I1
sI48
I0
sI49
I1
sI50
I0
sI51
I0
sI52
I1
sI53
I0
sI54
I1
sI55
I1
sI56
I1
sI57
I0
sI58
I0
sI59
I1
sI60
I1
sI61
I1
sI62
I1
sI63
I0
sI64
I0
sI65
I1
sI66
I1
sI67
I1
sI68
I1
sI69
I0
sI70
I1
sI71
I1
sI72
I0
sI73
I1
sI74
I0
sI75
I1
sI76
I1
sI77
I1
sI78
I0
sI79
I0
sI80
I0
sI81
I0
sI82
I1
sI83
I1
sI84
I1
sI85
I1
sI86
I1
sI87
I1
sI88
I1
sI89
I1
sI90
I1
sI91
I0
sI92
I0
sI93
I0
sI94
I0
sI95
I0
sI96
I1
sI97
I1
sI98
I1
sI99
I1
sI100
I0
sI101
I1
sI102
I1
sI103
I1
sI104
I1
sI105
I1
sI106
I1
sI107
I1
sI108
I0
sI109
I0
sI110
I0
sI111
I1
sI112
I1
sI113
I1
sI114
I1
sI115
I1
sI116
I1
sI117
I1
sI118
I1
sI119
I0
sI120
I1
sI121
I1
sI122
I0
sI123
I1
sI124
I1
sI125
I1
sI126
I0
sI127
I1
sI128
I1
sI129
I1
sI130
I0
sI131
I1
sI132
I1
sI133
I0
sI134
I0
sI135
I0
sI136
I0
sI137
I1
sI138
I1
sI139
I1
sI140
I1
sI141
I1
sI142
I1
sI143
I1
sI144
I1
sI145
I0
sI146
I1
sI147
I1
sI148
I1
sI149
I0
sI150
I0
sI151
I0
sI152
I1
sI153
I0
sI154
I0
sI155
I1
sI156
I1
sI157
I1
sI158
I1
sI159
I0
sI160
I1
sI161
I1
sI162
I1
sI163
I1
sI164
I1
sI165
I0
sI166
I1
sI167
I0
sI168
I1
sI169
I0
sI170
I1
sI171
I0
sI172
I0
sI173
I0
sI174
I0
sI175
I1
sI176
I1
sI177
I1
sI178
I0
sI179
I1
sI180
I1
sI181
I1
sI182
I0
sI183
I1
sI184
I1
sI185
I0
sI186
I0
sI187
I0
sI188
I1
sI189
I1
sI190
I0
sI191
I1
sI192
I1
sI193
I1
sI194
I1
sI195
I0
sI196
I0
sI197
I1
sI198
I1
sI199
I1
sI200
I0
sI201
I0
sI202
I0
sI203
I0
sI204
I1
sI205
I0
sI206
I1
sI207
I0
sI208
I1
sI209
I1
sI210
I1
sI211
I0
sI212
I0
sI213
I0
sI214
I0
sI215
I1
sI216
I1
sI217
I0
sI218
I0
sI219
I1
sI220
I1
sI221
I0
sI222
I1
sI223
I0
sI224
I1
sI225
I1
sI226
I0
sI227
I0
sI228
I0
sI229
I0
sI230
I1
sI231
I0
sI232
I1
sI233
I1
sI234
I0
sI235
I1
sI236
I1
sI237
I1
sI238
I1
sI239
I0
sI240
I0
sI241
I1
sI242
I1
sI243
I1
sI244
I1
sI245
I1
sI246
I1
sI247
I1
sI248
I1
sI249
I1
sI250
I1
sI251
I0
sI252
I1
sI253
I1
sI254
I1
sI255
I0
ssI60
(dp64
I0
I1
sI1
I1
sI2
I1
sI3
I1
sI4
I1
sI5
I1
sI6
I1
sI7
I1
sI8
I0
sI9
I0
sI10
I0
sI11
I0
sI12
I1
sI13
I0
sI14
I1
sI15
I1
sI16
I1
sI17
I1
sI18
I1
sI19
I1
sI20
I0
sI21
I1
sI22
I1
sI23
I1
sI24
I0
sI25
I1
sI26
I1
sI27
I0
sI28
I1
sI29
I1
sI30
I1
sI31
I1
sI32
I1
sI33
I0
sI34
I0
sI35
I1
sI36
I1
sI37
I1
sI38
I1
sI39
I1
sI40
I0
sI41
I0
sI42
I0
sI43
I1
sI44
I0
sI45
I1
sI46
I1
sI47
I1
sI48
I0
sI49
I1
sI50
I0
sI51
I0
sI52
I1
sI53
I0
sI54
I1
sI55
I1
sI56
I1
sI57
I0
sI58
I0
sI59
I1
sI60
I1
sI61
I1
sI62
I1
sI63
I0
sI64
I0
sI65
I1
sI66
I1
sI67
I1
sI68
I1
sI69
I0
sI70
I1
sI71
I1
sI72
I0
sI73
I1
sI74
I0
sI75
I1
sI76
I1
sI77
I1
sI78
I0
sI79
I0
sI80
I0
sI81
I0
sI82
I1
sI83
I1
sI84
I1
sI85
I1
sI86
I1
sI87
I1
sI88
I1
sI89
I1
sI90
I1
sI91
I0
sI92
I0
sI93
I0
sI94
I0
sI95
I0
sI96
I1
sI97
I1
sI98
I1
sI99
I1
sI100
I0
sI101
I1
sI102
I1
sI103
I1
sI104
I1
sI105
I1
sI106
I1
sI107
I1
sI108
I0
sI109
I0
sI110
I0
sI111
I1
sI112
I1
sI113
I1
sI114
I1
sI115
I1
sI116
I1
sI117
I1
sI118
I1
sI119
I0
sI120
I1
sI121
I1
sI122
I0
sI123
I1
sI124
I1
sI125
I1
sI126
I0
sI127
I1
sI128
I1
sI129
I1
sI130
I0
sI131
I1
sI132
I1
sI133
I0
sI134
I0
sI135
I0
sI136
I0
sI137
I1
sI138
I1
sI139
I1
sI140
I1
sI141
I1
sI142
I1
sI143
I1
sI144
I1
sI145
I0
sI146
I1
sI147
I1
sI148
I1
sI149
I0
sI150
I0
sI151
I0
sI152
I1
sI153
I0
sI154
I0
sI155
I1
sI156
I1
sI157
I1
sI158
I1
sI159
I0
sI160
I1
sI161
I1
sI162
I1
sI163
I1
sI164
I1
sI165
I0
sI166
I1
sI167
I0
sI168
I1
sI169
I0
sI170
I1
sI171
I0
sI172
I0
sI173
I0
sI174
I0
sI175
I1
sI176
I1
sI177
I1
sI178
I0
sI179
I1
sI180
I1
sI181
I1
sI182
I0
sI183
I1
sI184
I1
sI185
I0
sI186
I0
sI187
I0
sI188
I1
sI189
I1
sI190
I0
sI191
I1
sI192
I1
sI193
I1
sI194
I1
sI195
I0
sI196
I0
sI197
I1
sI198
I1
sI199
I1
sI200
I0
sI201
I0
sI202
I0
sI203
I0
sI204
I1
sI205
I0
sI206
I1
sI207
I0
sI208
I1
sI209
I1
sI210
I1
sI211
I0
sI212
I0
sI213
I0
sI214
I0
sI215
I1
sI216
I1
sI217
I0
sI218
I0
sI219
I1
sI220
I1
sI221
I0
sI222
I1
sI223
I0
sI224
I1
sI225
I1
sI226
I0
sI227
I0
sI228
I0
sI229
I0
sI230
I1
sI231
I0
sI232
I1
sI233
I1
sI234
I0
sI235
I1
sI236
I1
sI237
I1
sI238
I1
sI239
I0
sI240
I0
sI241
I1
sI242
I1
sI243
I1
sI244
I1
sI245
I1
sI246
I1
sI247
I1
sI248
I1
sI249
I1
sI250
I1
sI251
I0
sI252
I1
sI253
I1
sI254
I1
sI255
I0
ssI61
(dp65
I0
I1
sI1
I1
sI2
I1
sI3
I1
sI4
I1
sI5
I1
sI6
I1
sI7
I1
sI8
I0
sI9
I0
sI10
I0
sI11
I0
sI12
I1
sI13
I0
sI14
I1
sI15
I1
sI16
I1
sI17
I1
sI18
I1
sI19
I1
sI20
I0
sI21
I1
sI22
I1
sI23
I1
sI24
I0
sI25
I1
sI26
I1
sI27
I0
sI28
I1
sI29
I1
sI30
I1
sI31
I1
sI32
I1
sI33
I0
sI34
I0
sI35
I1
sI36
I1
sI37
I1
sI38
I1
sI39
I1
sI40
I0
sI41
I0
sI42
I0
sI43
I1
sI44
I0
sI45
I1
sI46
I1
sI47
I1
sI48
I0
sI49
I1
sI50
I0
sI51
I0
sI52
I1
sI53
I0
sI54
I1
sI55
I1
sI56
I1
sI57
I0
sI58
I0
sI59
I1
sI60
I1
sI61
I1
sI62
I1
sI63
I0
sI64
I0
sI65
I1
sI66
I1
sI67
I1
sI68
I1
sI69
I0
sI70
I1
sI71
I1
sI72
I0
sI73
I1
sI74
I0
sI75
I1
sI76
I1
sI77
I1
sI78
I0
sI79
I0
sI80
I0
sI81
I0
sI82
I1
sI83
I1
sI84
I1
sI85
I1
sI86
I1
sI87
I1
sI88
I1
sI89
I1
sI90
I1
sI91
I0
sI92
I0
sI93
I0
sI94
I0
sI95
I0
sI96
I1
sI97
I1
sI98
I1
sI99
I1
sI100
I0
sI101
I1
sI102
I1
sI103
I1
sI104
I1
sI105
I1
sI106
I1
sI107
I1
sI108
I0
sI109
I0
sI110
I0
sI111
I1
sI112
I1
sI113
I1
sI114
I1
sI115
I1
sI116
I1
sI117
I1
sI118
I1
sI119
I0
sI120
I1
sI121
I1
sI122
I0
sI123
I1
sI124
I1
sI125
I1
sI126
I0
sI127
I1
sI128
I1
sI129
I1
sI130
I0
sI131
I1
sI132
I1
sI133
I0
sI134
I0
sI135
I0
sI136
I0
sI137
I1
sI138
I1
sI139
I1
sI140
I1
sI141
I1
sI142
I1
sI143
I1
sI144
I1
sI145
I0
sI146
I1
sI147
I1
sI148
I1
sI149
I0
sI150
I0
sI151
I0
sI152
I1
sI153
I0
sI154
I0
sI155
I1
sI156
I1
sI157
I1
sI158
I1
sI159
I0
sI160
I1
sI161
I1
sI162
I1
sI163
I1
sI164
I1
sI165
I0
sI166
I1
sI167
I0
sI168
I1
sI169
I0
sI170
I1
sI171
I0
sI172
I0
sI173
I0
sI174
I0
sI175
I1
sI176
I1
sI177
I1
sI178
I0
sI179
I1
sI180
I1
sI181
I1
sI182
I0
sI183
I1
sI184
I1
sI185
I0
sI186
I0
sI187
I0
sI188
I1
sI189
I1
sI190
I0
sI191
I1
sI192
I1
sI193
I1
sI194
I1
sI195
I0
sI196
I0
sI197
I1
sI198
I1
sI199
I1
sI200
I0
sI201
I0
sI202
I0
sI203
I0
sI204
I1
sI205
I0
sI206
I1
sI207
I0
sI208
I1
sI209
I1
sI210
I1
sI211
I0
sI212
I0
sI213
I0
sI214
I0
sI215
I1
sI216
I1
sI217
I0
sI218
I0
sI219
I1
sI220
I1
sI221
I0
sI222
I1
sI223
I0
sI224
I1
sI225
I1
sI226
I0
sI227
I0
sI228
I0
sI229
I0
sI230
I1
sI231
I0
sI232
I1
sI233
I1
sI234
I0
sI235
I1
sI236
I1
sI237
I1
sI238
I1
sI239
I0
sI240
I0
sI241
I1
sI242
I1
sI243
I1
sI244
I1
sI245
I1
sI246
I1
sI247
I1
sI248
I1
sI249
I1
sI250
I1
sI251
I0
sI252
I1
sI253
I1
sI254
I1
sI255
I0
ssI62
(dp66
I0
I1
sI1
I1
sI2
I1
sI3
I1
sI4
I1
sI5
I1
sI6
I1
sI7
I1
sI8
I0
sI9
I0
sI10
I0
sI11
I0
sI12
I1
sI13
I0
sI14
I1
sI15
I1
sI16
I1
sI17
I1
sI18
I1
sI19
I1
sI20
I0
sI21
I1
sI22
I1
sI23
I1
sI24
I0
sI25
I1
sI26
I1
sI27
I0
sI28
I1
sI29
I1
sI30
I1
sI31
I1
sI32
I1
sI33
I0
sI34
I0
sI35
I1
sI36
I1
sI37
I1
sI38
I1
sI39
I1
sI40
I0
sI41
I0
sI42
I0
sI43
I1
sI44
I0
sI45
I1
sI46
I1
sI47
I1
sI48
I0
sI49
I1
sI50
I0
sI51
I0
sI52
I1
sI53
I0
sI54
I1
sI55
I1
sI56
I1
sI57
I0
sI58
I0
sI59
I1
sI60
I1
sI61
I1
sI62
I1
sI63
I0
sI64
I0
sI65
I1
sI66
I1
sI67
I1
sI68
I1
sI69
I0
sI70
I1
sI71
I1
sI72
I0
sI73
I1
sI74
I0
sI75
I1
sI76
I1
sI77
I1
sI78
I0
sI79
I0
sI80
I0
sI81
I0
sI82
I1
sI83
I1
sI84
I1
sI85
I1
sI86
I1
sI87
I1
sI88
I1
sI89
I1
sI90
I1
sI91
I0
sI92
I0
sI93
I0
sI94
I0
sI95
I0
sI96
I1
sI97
I1
sI98
I1
sI99
I1
sI100
I0
sI101
I1
sI102
I1
sI103
I1
sI104
I1
sI105
I1
sI106
I1
sI107
I1
sI108
I0
sI109
I0
sI110
I0
sI111
I1
sI112
I1
sI113
I1
sI114
I1
sI115
I1
sI116
I1
sI117
I1
sI118
I1
sI119
I0
sI120
I1
sI121
I1
sI122
I0
sI123
I1
sI124
I1
sI125
I1
sI126
I0
sI127
I1
sI128
I1
sI129
I1
sI130
I0
sI131
I1
sI132
I1
sI133
I0
sI134
I0
sI135
I0
sI136
I0
sI137
I1
sI138
I1
sI139
I1
sI140
I1
sI141
I1
sI142
I1
sI143
I1
sI144
I1
sI145
I0
sI146
I1
sI147
I1
sI148
I1
sI149
I0
sI150
I0
sI151
I0
sI152
I1
sI153
I0
sI154
I0
sI155
I1
sI156
I1
sI157
I1
sI158
I1
sI159
I0
sI160
I1
sI161
I1
sI162
I1
sI163
I1
sI164
I1
sI165
I0
sI166
I1
sI167
I0
sI168
I1
sI169
I0
sI170
I1
sI171
I0
sI172
I0
sI173
I0
sI174
I0
sI175
I1
sI176
I1
sI177
I1
sI178
I0
sI179
I1
sI180
I1
sI181
I1
sI182
I0
sI183
I1
sI184
I1
sI185
I0
sI186
I0
sI187
I0
sI188
I1
sI189
I1
sI190
I0
sI191
I1
sI192
I1
sI193
I1
sI194
I1
sI195
I0
sI196
I0
sI197
I1
sI198
I1
sI199
I1
sI200
I0
sI201
I0
sI202
I0
sI203
I0
sI204
I1
sI205
I0
sI206
I1
sI207
I0
sI208
I1
sI209
I1
sI210
I1
sI211
I0
sI212
I0
sI213
I0
sI214
I0
sI215
I1
sI216
I1
sI217
I0
sI218
I0
sI219
I1
sI220
I1
sI221
I0
sI222
I1
sI223
I0
sI224
I1
sI225
I1
sI226
I0
sI227
I0
sI228
I0
sI229
I0
sI230
I1
sI231
I0
sI232
I1
sI233
I1
sI234
I0
sI235
I1
sI236
I1
sI237
I1
sI238
I1
sI239
I0
sI240
I0
sI241
I1
sI242
I1
sI243
I1
sI244
I1
sI245
I1
sI246
I1
sI247
I1
sI248
I1
sI249
I1
sI250
I1
sI251
I0
sI252
I1
sI253
I1
sI254
I1
sI255
I0
ss.