ccollections
defaultdict
p0
(c__builtin__
list
p1
tp2
Rp3
I0
(dp4
I0
I0
sI1
I0
sI2
I0
sI3
I0
sI4
I0
sI5
I0
sI6
I0
sI7
I0
sI8
I3
sI9
I0
sI10
I0
sI11
I0
sI12
I0
sI13
I0
sI14
I0
sI15
I0
sI16
I0
sI17
I0
sI18
I0
sI19
I0
sI20
I0
sI21
I0
sI22
I0
sI23
I3
sI24
I2
sI25
I0
sI26
I0
sI27
I0
sI28
I3
sI29
I3
sI30
I0
sI31
I0
sI32
I0
sI33
I0
sI34
I0
sI35
I0
sI36
I0
sI37
I0
sI38
I3
sI39
I0
sI40
I0
sI41
I0
sI42
I0
sI43
I0
sI44
I3
sI45
I3
sI46
I3
sI47
I3
sI48
I3
sI49
I3
sI50
I3
sI51
I3
sI52
I3
sI53
I3
sI54
I1
sI55
I3
sI56
I3
sI57
I3
sI58
I3
sI59
I3
sI60
I3
sI61
I3
sI62
I3
sI63
I0
sI64
I0
sI65
I0
sI66
I0
sI67
I0
sI68
I0
sI69
I0
sI70
I0
sI71
I0
sI72
I0
sI73
I0
sI74
I0
sI75
I0
sI76
I1
sI77
I0
sI78
I0
sI79
I2
sI80
I0
sI81
I0
sI82
I2
sI83
I3
sI84
I3
sI85
I0
sI86
I2
sI87
I2
sI88
I0
sI89
I1
sI90
I0
sI91
I0
sI92
I0
sI93
I0
sI94
I0
sI95
I0
sI96
I0
sI97
I0
sI98
I0
sI99
I2
sI100
I3
sI101
I3
sI102
I0
sI103
I0
sI104
I0
sI105
I0
sI106
I0
sI107
I0
sI108
I0
sI109
I0
sI110
I0
sI111
I0
sI112
I0
sI113
I0
sI114
I0
sI115
I0
sI116
I3
sI117
I0
sI118
I2
sI119
I3
sI120
I0
sI121
I0
sI122
I0
sI123
I0
sI124
I0
sI125
I0
sI126
I0
sI127
I0
sI128
I0
sI129
I0
sI130
I0
sI131
I0
sI132
I0
sI133
I0
sI134
I2
sI135
I3
sI136
I2
sI137
I2
sI138
I0
sI139
I0
sI140
I0
sI141
I0
sI142
I0
sI143
I0
sI144
I0
sI145
I0
sI146
I0
sI147
I2
sI148
I2
sI149
I3
sI150
I2
sI151
I2
sI152
I2
sI153
I1
sI154
I0
sI155
I0
sI156
I0
sI157
I0
sI158
I0
sI159
I0
sI160
I0
sI161
I0
sI162
I0
sI163
I2
sI164
I0
sI165
I0
sI166
I3
sI167
I3
sI168
I2
sI169
I0
sI170
I0
sI171
I0
sI172
I0
sI173
I0
sI174
I0
sI175
I0
sI176
I0
sI177
I1
sI178
I0
sI179
I3
sI180
I3
sI181
I2
sI182
I0
sI183
I0
sI184
I0
sI185
I0
sI186
I0
sI187
I0
sI188
I0
sI189
I0
sI190
I0
sI191
I0
sI192
I0
sI193
I0
sI194
I1
sI195
I1
sI196
I1
sI197
I1
sI198
I1
sI199
I0
sI200
I0
sI201
I0
sI202
I2
sI203
I3
sI204
I0
sI205
I0
sI206
I0
sI207
I0
sI208
I0
sI209
I0
sI210
I3
sI211
I1
sI212
I1
sI213
I2
sI214
I0
sI215
I0
sI216
I0
sI217
I0
sI218
I0
sI219
I0
sI220
I0
sI221
I0
sI222
I2
sI223
I0
sI224
I0
sI225
I0
sI226
I1
sI227
I2
sI228
I1
sI229
I1
sI230
I0
sI231
I0
sI232
I0
sI233
I0
sI234
I0
sI235
I0
sI236
I0
sI237
I0
sI238
I0
sI239
I0
sI240
I1
sI241
I1
sI242
I3
sI243
I1
sI244
I1
sI245
I1
sI246
I1
sI247
I0
sI248
I0
sI249
I0
sI250
I0
sI251
I0
sI252
I0
sI253
I0
sI254
I0
sI255
I3
ssI1
(dp5
I0
I0
sI1
I0
sI2
I0
sI3
I0
sI4
I0
sI5
I0
sI6
I0
sI7
I0
sI8
I0
sI9
I0
sI10
I0
sI11
I0
sI12
I0
sI13
I0
sI14
I0
sI15
I0
sI16
I0
sI17
I0
sI18
I0
sI19
I0
sI20
I0
sI21
I0
sI22
I0
sI23
I0
sI24
I0
sI25
I0
sI26
I0
sI27
I0
sI28
I0
sI29
I0
sI30
I0
sI31
I0
sI32
I0
sI33
I0
sI34
I0
sI35
I0
sI36
I0
sI37
I0
sI38
I0
sI39
I0
sI40
I0
sI41
I1
sI42
I0
sI43
I0
sI44
I0
sI45
I1
sI46
I0
sI47
I0
sI48
I1
sI49
I0
sI50
I0
sI51
I0
sI52
I1
sI53
I1
sI54
I1
sI55
I1
sI56
I1
sI57
I1
sI58
I1
sI59
I0
sI60
I1
sI61
I0
sI62
I0
sI63
I0
sI64
I0
sI65
I0
sI66
I0
sI67
I0
sI68
I0
sI69
I0
sI70
I0
sI71
I0
sI72
I0
sI73
I0
sI74
I0
sI75
I0
sI76
I0
sI77
I0
sI78
I0
sI79
I0
sI80
I0
sI81
I0
sI82
I0
sI83
I0
sI84
I0
sI85
I0
sI86
I0
sI87
I0
sI88
I0
sI89
I0
sI90
I0
sI91
I0
sI92
I0
sI93
I0
sI94
I0
sI95
I0
sI96
I0
sI97
I0
sI98
I0
sI99
I0
sI100
I1
sI101
I1
sI102
I0
sI103
I0
sI104
I0
sI105
I0
sI106
I0
sI107
I0
sI108
I0
sI109
I1
sI110
I0
sI111
I0
sI112
I1
sI113
I0
sI114
I0
sI115
I0
sI116
I0
sI117
I0
sI118
I0
sI119
I0
sI120
I0
sI121
I0
sI122
I0
sI123
I0
sI124
I0
sI125
I0
sI126
I0
sI127
I0
sI128
I0
sI129
I0
sI130
I0
sI131
I0
sI132
I0
sI133
I0
sI134
I0
sI135
I0
sI136
I0
sI137
I0
sI138
I0
sI139
I0
sI140
I0
sI141
I0
sI142
I0
sI143
I0
sI144
I0
sI145
I0
sI146
I0
sI147
I0
sI148
I0
sI149
I0
sI150
I0
sI151
I0
sI152
I0
sI153
I0
sI154
I0
sI155
I0
sI156
I0
sI157
I0
sI158
I0
sI159
I0
sI160
I0
sI161
I0
sI162
I0
sI163
I1
sI164
I0
sI165
I0
sI166
I0
sI167
I0
sI168
I0
sI169
I0
sI170
I0
sI171
I0
sI172
I0
sI173
I0
sI174
I0
sI175
I1
sI176
I0
sI177
I0
sI178
I0
sI179
I0
sI180
I0
sI181
I0
sI182
I0
sI183
I0
sI184
I0
sI185
I0
sI186
I0
sI187
I0
sI188
I0
sI189
I0
sI190
I0
sI191
I0
sI192
I0
sI193
I1
sI194
I0
sI195
I1
sI196
I0
sI197
I1
sI198
I0
sI199
I1
sI200
I0
sI201
I0
sI202
I0
sI203
I0
sI204
I1
sI205
I1
sI206
I0
sI207
I1
sI208
I1
sI209
I1
sI210
I1
sI211
I0
sI212
I0
sI213
I0
sI214
I0
sI215
I0
sI216
I0
sI217
I0
sI218
I0
sI219
I1
sI220
I0
sI221
I1
sI222
I0
sI223
I0
sI224
I1
sI225
I0
sI226
I0
sI227
I0
sI228
I1
sI229
I0
sI230
I0
sI231
I0
sI232
I0
sI233
I0
sI234
I1
sI235
I0
sI236
I0
sI237
I0
sI238
I0
sI239
I0
sI240
I1
sI241
I1
sI242
I1
sI243
I1
sI244
I1
sI245
I1
sI246
I1
sI247
I1
sI248
I1
sI249
I1
sI250
I1
sI251
I0
sI252
I0
sI253
I1
sI254
I0
sI255
I1
ssI2
(dp6
I0
I1
sI1
I1
sI2
I1
sI3
I1
sI4
I1
sI5
I0
sI6
I1
sI7
I1
sI8
I1
sI9
I1
sI10
I2
sI11
I1
sI12
I1
sI13
I2
sI14
I2
sI15
I2
sI16
I1
sI17
I1
sI18
I2
sI19
I2
sI20
I0
sI21
I2
sI22
I1
sI23
I0
sI24
I0
sI25
I0
sI26
I1
sI27
I3
sI28
I1
sI29
I2
sI30
I0
sI31
I1
sI32
I1
sI33
I1
sI34
I1
sI35
I1
sI36
I1
sI37
I1
sI38
I2
sI39
I2
sI40
I2
sI41
I0
sI42
I3
sI43
I3
sI44
I3
sI45
I1
sI46
I1
sI47
I1
sI48
I2
sI49
I2
sI50
I0
sI51
I3
sI52
I3
sI53
I1
sI54
I1
sI55
I0
sI56
I3
sI57
I3
sI58
I3
sI59
I3
sI60
I3
sI61
I3
sI62
I1
sI63
I1
sI64
I2
sI65
I2
sI66
I2
sI67
I3
sI68
I3
sI69
I1
sI70
I1
sI71
I1
sI72
I1
sI73
I1
sI74
I1
sI75
I2
sI76
I1
sI77
I1
sI78
I2
sI79
I1
sI80
I0
sI81
I1
sI82
I3
sI83
I3
sI84
I1
sI85
I2
sI86
I2
sI87
I2
sI88
I1
sI89
I1
sI90
I1
sI91
I2
sI92
I0
sI93
I2
sI94
I1
sI95
I1
sI96
I1
sI97
I1
sI98
I3
sI99
I1
sI100
I1
sI101
I1
sI102
I0
sI103
I1
sI104
I1
sI105
I0
sI106
I3
sI107
I1
sI108
I1
sI109
I1
sI110
I0
sI111
I0
sI112
I1
sI113
I1
sI114
I1
sI115
I1
sI116
I1
sI117
I2
sI118
I2
sI119
I3
sI120
I2
sI121
I1
sI122
I2
sI123
I0
sI124
I2
sI125
I0
sI126
I2
sI127
I0
sI128
I1
sI129
I2
sI130
I3
sI131
I3
sI132
I1
sI133
I0
sI134
I2
sI135
I3
sI136
I3
sI137
I2
sI138
I1
sI139
I2
sI140
I2
sI141
I1
sI142
I2
sI143
I0
sI144
I1
sI145
I0
sI146
I2
sI147
I0
sI148
I2
sI149
I1
sI150
I3
sI151
I3
sI152
I3
sI153
I0
sI154
I1
sI155
I1
sI156
I0
sI157
I1
sI158
I0
sI159
I2
sI160
I2
sI161
I3
sI162
I0
sI163
I1
sI164
I1
sI165
I1
sI166
I1
sI167
I1
sI168
I2
sI169
I1
sI170
I0
sI171
I3
sI172
I0
sI173
I0
sI174
I0
sI175
I0
sI176
I3
sI177
I0
sI178
I2
sI179
I2
sI180
I1
sI181
I1
sI182
I2
sI183
I0
sI184
I0
sI185
I0
sI186
I3
sI187
I0
sI188
I2
sI189
I0
sI190
I3
sI191
I2
sI192
I3
sI193
I0
sI194
I3
sI195
I1
sI196
I0
sI197
I3
sI198
I1
sI199
I1
sI200
I3
sI201
I1
sI202
I0
sI203
I3
sI204
I3
sI205
I0
sI206
I0
sI207
I0
sI208
I2
sI209
I3
sI210
I2
sI211
I0
sI212
I1
sI213
I3
sI214
I1
sI215
I0
sI216
I2
sI217
I0
sI218
I3
sI219
I0
sI220
I1
sI221
I2
sI222
I2
sI223
I0
sI224
I1
sI225
I1
sI226
I0
sI227
I1
sI228
I1
sI229
I3
sI230
I0
sI231
I0
sI232
I1
sI233
I3
sI234
I1
sI235
I0
sI236
I3
sI237
I1
sI238
I1
sI239
I0
sI240
I1
sI241
I0
sI242
I3
sI243
I0
sI244
I0
sI245
I1
sI246
I0
sI247
I1
sI248
I0
sI249
I1
sI250
I2
sI251
I0
sI252
I0
sI253
I1
sI254
I0
sI255
I2
ssI3
(dp7
I0
I0
sI1
I1
sI2
I0
sI3
I0
sI4
I0
sI5
I0
sI6
I0
sI7
I0
sI8
I0
sI9
I1
sI10
I0
sI11
I0
sI12
I0
sI13
I0
sI14
I0
sI15
I0
sI16
I0
sI17
I0
sI18
I0
sI19
I0
sI20
I0
sI21
I0
sI22
I0
sI23
I0
sI24
I1
sI25
I0
sI26
I0
sI27
I0
sI28
I0
sI29
I0
sI30
I0
sI31
I0
sI32
I0
sI33
I0
sI34
I0
sI35
I0
sI36
I1
sI37
I1
sI38
I0
sI39
I0
sI40
I0
sI41
I1
sI42
I1
sI43
I1
sI44
I1
sI45
I0
sI46
I0
sI47
I0
sI48
I0
sI49
I0
sI50
I0
sI51
I0
sI52
I0
sI53
I0
sI54
I0
sI55
I0
sI56
I0
sI57
I1
sI58
I1
sI59
I0
sI60
I0
sI61
I1
sI62
I0
sI63
I0
sI64
I0
sI65
I0
sI66
I0
sI67
I0
sI68
I1
sI69
I1
sI70
I0
sI71
I0
sI72
I0
sI73
I0
sI74
I0
sI75
I0
sI76
I0
sI77
I0
sI78
I0
sI79
I0
sI80
I0
sI81
I0
sI82
I1
sI83
I1
sI84
I0
sI85
I0
sI86
I0
sI87
I0
sI88
I0
sI89
I0
sI90
I0
sI91
I0
sI92
I0
sI93
I0
sI94
I0
sI95
I0
sI96
I0
sI97
I0
sI98
I0
sI99
I0
sI100
I1
sI101
I0
sI102
I0
sI103
I0
sI104
I0
sI105
I0
sI106
I0
sI107
I0
sI108
I0
sI109
I0
sI110
I0
sI111
I0
sI112
I1
sI113
I0
sI114
I0
sI115
I0
sI116
I1
sI117
I0
sI118
I0
sI119
I0
sI120
I0
sI121
I0
sI122
I0
sI123
I0
sI124
I0
sI125
I0
sI126
I1
sI127
I0
sI128
I0
sI129
I0
sI130
I0
sI131
I0
sI132
I0
sI133
I0
sI134
I0
sI135
I0
sI136
I0
sI137
I0
sI138
I0
sI139
I0
sI140
I0
sI141
I1
sI142
I1
sI143
I0
sI144
I0
sI145
I0
sI146
I0
sI147
I0
sI148
I0
sI149
I0
sI150
I0
sI151
I0
sI152
I0
sI153
I0
sI154
I0
sI155
I0
sI156
I1
sI157
I1
sI158
I1
sI159
I1
sI160
I0
sI161
I0
sI162
I0
sI163
I0
sI164
I0
sI165
I1
sI166
I1
sI167
I1
sI168
I1
sI169
I1
sI170
I0
sI171
I0
sI172
I1
sI173
I1
sI174
I1
sI175
I1
sI176
I0
sI177
I1
sI178
I0
sI179
I0
sI180
I0
sI181
I0
sI182
I1
sI183
I1
sI184
I1
sI185
I0
sI186
I0
sI187
I0
sI188
I1
sI189
I1
sI190
I1
sI191
I0
sI192
I0
sI193
I0
sI194
I0
sI195
I0
sI196
I0
sI197
I1
sI198
I1
sI199
I0
sI200
I0
sI201
I0
sI202
I0
sI203
I0
sI204
I0
sI205
I1
sI206
I0
sI207
I1
sI208
I0
sI209
I0
sI210
I0
sI211
I1
sI212
I1
sI213
I1
sI214
I1
sI215
I0
sI216
I1
sI217
I0
sI218
I0
sI219
I1
sI220
I0
sI221
I0
sI222
I0
sI223
I0
sI224
I0
sI225
I0
sI226
I0
sI227
I0
sI228
I1
sI229
I1
sI230
I0
sI231
I0
sI232
I0
sI233
I0
sI234
I0
sI235
I0
sI236
I1
sI237
I0
sI238
I0
sI239
I0
sI240
I0
sI241
I0
sI242
I0
sI243
I0
sI244
I1
sI245
I0
sI246
I0
sI247
I1
sI248
I0
sI249
I0
sI250
I0
sI251
I0
sI252
I0
sI253
I0
sI254
I0
sI255
I0
ssI4
(dp8
I0
I0
sI1
I0
sI2
I0
sI3
I0
sI4
I0
sI5
I0
sI6
I0
sI7
I1
sI8
I0
sI9
I1
sI10
I0
sI11
I0
sI12
I0
sI13
I0
sI14
I0
sI15
I0
sI16
I0
sI17
I0
sI18
I0
sI19
I0
sI20
I0
sI21
I0
sI22
I0
sI23
I0
sI24
I1
sI25
I0
sI26
I0
sI27
I0
sI28
I1
sI29
I1
sI30
I0
sI31
I1
sI32
I0
sI33
I0
sI34
I0
sI35
I0
sI36
I0
sI37
I0
sI38
I0
sI39
I1
sI40
I0
sI41
I1
sI42
I0
sI43
I1
sI44
I0
sI45
I0
sI46
I1
sI47
I0
sI48
I0
sI49
I1
sI50
I0
sI51
I1
sI52
I1
sI53
I1
sI54
I0
sI55
I0
sI56
I0
sI57
I1
sI58
I1
sI59
I1
sI60
I0
sI61
I1
sI62
I0
sI63
I0
sI64
I0
sI65
I0
sI66
I0
sI67
I1
sI68
I1
sI69
I0
sI70
I0
sI71
I0
sI72
I0
sI73
I0
sI74
I0
sI75
I0
sI76
I0
sI77
I0
sI78
I0
sI79
I0
sI80
I1
sI81
I0
sI82
I1
sI83
I1
sI84
I0
sI85
I0
sI86
I0
sI87
I0
sI88
I0
sI89
I0
sI90
I1
sI91
I1
sI92
I0
sI93
I1
sI94
I0
sI95
I0
sI96
I0
sI97
I0
sI98
I0
sI99
I1
sI100
I1
sI101
I0
sI102
I1
sI103
I0
sI104
I1
sI105
I0
sI106
I1
sI107
I1
sI108
I0
sI109
I1
sI110
I1
sI111
I0
sI112
I0
sI113
I0
sI114
I0
sI115
I1
sI116
I0
sI117
I1
sI118
I1
sI119
I0
sI120
I0
sI121
I1
sI122
I0
sI123
I0
sI124
I1
sI125
I0
sI126
I1
sI127
I0
sI128
I0
sI129
I0
sI130
I1
sI131
I1
sI132
I0
sI133
I0
sI134
I0
sI135
I1
sI136
I1
sI137
I0
sI138
I0
sI139
I0
sI140
I1
sI141
I1
sI142
I0
sI143
I1
sI144
I1
sI145
I0
sI146
I0
sI147
I0
sI148
I0
sI149
I0
sI150
I0
sI151
I0
sI152
I0
sI153
I1
sI154
I0
sI155
I0
sI156
I0
sI157
I0
sI158
I0
sI159
I0
sI160
I1
sI161
I1
sI162
I0
sI163
I0
sI164
I1
sI165
I0
sI166
I1
sI167
I0
sI168
I1
sI169
I1
sI170
I1
sI171
I0
sI172
I0
sI173
I0
sI174
I0
sI175
I0
sI176
I1
sI177
I0
sI178
I1
sI179
I0
sI180
I0
sI181
I0
sI182
I1
sI183
I1
sI184
I1
sI185
I0
sI186
I0
sI187
I1
sI188
I0
sI189
I1
sI190
I0
sI191
I1
sI192
I0
sI193
I1
sI194
I0
sI195
I0
sI196
I1
sI197
I1
sI198
I0
sI199
I1
sI200
I0
sI201
I1
sI202
I0
sI203
I1
sI204
I1
sI205
I0
sI206
I0
sI207
I0
sI208
I0
sI209
I0
sI210
I0
sI211
I1
sI212
I0
sI213
I1
sI214
I0
sI215
I0
sI216
I0
sI217
I0
sI218
I1
sI219
I1
sI220
I0
sI221
I1
sI222
I1
sI223
I0
sI224
I1
sI225
I0
sI226
I1
sI227
I0
sI228
I1
sI229
I1
sI230
I1
sI231
I1
sI232
I0
sI233
I1
sI234
I0
sI235
I0
sI236
I1
sI237
I0
sI238
I0
sI239
I0
sI240
I0
sI241
I0
sI242
I0
sI243
I0
sI244
I0
sI245
I0
sI246
I0
sI247
I1
sI248
I0
sI249
I1
sI250
I1
sI251
I0
sI252
I1
sI253
I0
sI254
I0
sI255
I0
ssI5
(dp9
I0
I1
sI1
I0
sI2
I1
sI3
I1
sI4
I1
sI5
I2
sI6
I0
sI7
I1
sI8
I1
sI9
I2
sI10
I2
sI11
I2
sI12
I1
sI13
I1
sI14
I1
sI15
I1
sI16
I2
sI17
I1
sI18
I1
sI19
I2
sI20
I1
sI21
I1
sI22
I0
sI23
I0
sI24
I2
sI25
I0
sI26
I1
sI27
I1
sI28
I1
sI29
I2
sI30
I1
sI31
I1
sI32
I1
sI33
I0
sI34
I1
sI35
I1
sI36
I0
sI37
I1
sI38
I1
sI39
I1
sI40
I1
sI41
I1
sI42
I1
sI43
I1
sI44
I1
sI45
I1
sI46
I1
sI47
I0
sI48
I1
sI49
I1
sI50
I0
sI51
I1
sI52
I1
sI53
I1
sI54
I1
sI55
I0
sI56
I1
sI57
I1
sI58
I1
sI59
I1
sI60
I1
sI61
I1
sI62
I1
sI63
I1
sI64
I1
sI65
I1
sI66
I1
sI67
I1
sI68
I1
sI69
I1
sI70
I1
sI71
I1
sI72
I1
sI73
I1
sI74
I0
sI75
I0
sI76
I0
sI77
I1
sI78
I2
sI79
I1
sI80
I2
sI81
I0
sI82
I1
sI83
I1
sI84
I1
sI85
I1
sI86
I1
sI87
I1
sI88
I1
sI89
I1
sI90
I1
sI91
I1
sI92
I0
sI93
I1
sI94
I2
sI95
I2
sI96
I0
sI97
I0
sI98
I1
sI99
I1
sI100
I0
sI101
I1
sI102
I0
sI103
I1
sI104
I1
sI105
I1
sI106
I0
sI107
I1
sI108
I1
sI109
I2
sI110
I2
sI111
I2
sI112
I1
sI113
I1
sI114
I1
sI115
I1
sI116
I0
sI117
I0
sI118
I1
sI119
I0
sI120
I0
sI121
I1
sI122
I1
sI123
I0
sI124
I0
sI125
I2
sI126
I2
sI127
I2
sI128
I0
sI129
I1
sI130
I0
sI131
I1
sI132
I1
sI133
I0
sI134
I1
sI135
I0
sI136
I0
sI137
I0
sI138
I0
sI139
I2
sI140
I2
sI141
I2
sI142
I2
sI143
I2
sI144
I1
sI145
I1
sI146
I1
sI147
I0
sI148
I1
sI149
I1
sI150
I0
sI151
I0
sI152
I0
sI153
I2
sI154
I2
sI155
I0
sI156
I2
sI157
I2
sI158
I2
sI159
I2
sI160
I0
sI161
I0
sI162
I0
sI163
I1
sI164
I2
sI165
I1
sI166
I2
sI167
I2
sI168
I2
sI169
I2
sI170
I2
sI171
I0
sI172
I0
sI173
I2
sI174
I2
sI175
I2
sI176
I1
sI177
I1
sI178
I1
sI179
I1
sI180
I1
sI181
I0
sI182
I1
sI183
I0
sI184
I0
sI185
I2
sI186
I2
sI187
I2
sI188
I2
sI189
I0
sI190
I2
sI191
I2
sI192
I1
sI193
I1
sI194
I1
sI195
I1
sI196
I2
sI197
I1
sI198
I0
sI199
I1
sI200
I2
sI201
I2
sI202
I2
sI203
I2
sI204
I1
sI205
I2
sI206
I0
sI207
I1
sI208
I0
sI209
I0
sI210
I0
sI211
I1
sI212
I1
sI213
I0
sI214
I2
sI215
I1
sI216
I2
sI217
I2
sI218
I2
sI219
I2
sI220
I2
sI221
I2
sI222
I0
sI223
I2
sI224
I1
sI225
I0
sI226
I0
sI227
I0
sI228
I0
sI229
I2
sI230
I0
sI231
I1
sI232
I1
sI233
I1
sI234
I2
sI235
I0
sI236
I0
sI237
I2
sI238
I1
sI239
I2
sI240
I1
sI241
I1
sI242
I0
sI243
I1
sI244
I0
sI245
I0
sI246
I1
sI247
I1
sI248
I1
sI249
I1
sI250
I2
sI251
I0
sI252
I0
sI253
I0
sI254
I1
sI255
I0
ssI6
(dp10
I0
I1
sI1
I1
sI2
I0
sI3
I1
sI4
I1
sI5
I1
sI6
I1
sI7
I1
sI8
I1
sI9
I0
sI10
I1
sI11
I1
sI12
I1
sI13
I1
sI14
I1
sI15
I1
sI16
I1
sI17
I3
sI18
I1
sI19
I1
sI20
I3
sI21
I0
sI22
I1
sI23
I3
sI24
I1
sI25
I3
sI26
I1
sI27
I3
sI28
I1
sI29
I3
sI30
I0
sI31
I0
sI32
I3
sI33
I3
sI34
I1
sI35
I1
sI36
I1
sI37
I1
sI38
I3
sI39
I1
sI40
I3
sI41
I2
sI42
I3
sI43
I1
sI44
I1
sI45
I3
sI46
I3
sI47
I3
sI48
I1
sI49
I3
sI50
I1
sI51
I0
sI52
I0
sI53
I1
sI54
I1
sI55
I0
sI56
I3
sI57
I2
sI58
I1
sI59
I1
sI60
I1
sI61
I2
sI62
I1
sI63
I1
sI64
I0
sI65
I0
sI66
I1
sI67
I0
sI68
I3
sI69
I1
sI70
I1
sI71
I1
sI72
I3
sI73
I3
sI74
I0
sI75
I1
sI76
I1
sI77
I2
sI78
I2
sI79
I1
sI80
I1
sI81
I1
sI82
I2
sI83
I3
sI84
I2
sI85
I2
sI86
I0
sI87
I1
sI88
I3
sI89
I2
sI90
I2
sI91
I2
sI92
I0
sI93
I3
sI94
I1
sI95
I0
sI96
I0
sI97
I0
sI98
I0
sI99
I0
sI100
I1
sI101
I0
sI102
I1
sI103
I2
sI104
I1
sI105
I1
sI106
I3
sI107
I3
sI108
I3
sI109
I0
sI110
I3
sI111
I3
sI112
I0
sI113
I0
sI114
I0
sI115
I1
sI116
I3
sI117
I2
sI118
I3
sI119
I0
sI120
I0
sI121
I3
sI122
I0
sI123
I3
sI124
I3
sI125
I3
sI126
I0
sI127
I0
sI128
I1
sI129
I0
sI130
I0
sI131
I0
sI132
I1
sI133
I0
sI134
I3
sI135
I3
sI136
I0
sI137
I0
sI138
I1
sI139
I3
sI140
I0
sI141
I3
sI142
I0
sI143
I3
sI144
I1
sI145
I0
sI146
I0
sI147
I0
sI148
I1
sI149
I2
sI150
I1
sI151
I3
sI152
I3
sI153
I3
sI154
I3
sI155
I3
sI156
I3
sI157
I2
sI158
I1
sI159
I1
sI160
I0
sI161
I1
sI162
I1
sI163
I1
sI164
I1
sI165
I3
sI166
I3
sI167
I1
sI168
I3
sI169
I3
sI170
I3
sI171
I3
sI172
I2
sI173
I3
sI174
I3
sI175
I0
sI176
I0
sI177
I0
sI178
I0
sI179
I2
sI180
I2
sI181
I2
sI182
I1
sI183
I3
sI184
I3
sI185
I3
sI186
I0
sI187
I0
sI188
I0
sI189
I1
sI190
I3
sI191
I1
sI192
I0
sI193
I0
sI194
I0
sI195
I1
sI196
I2
sI197
I0
sI198
I2
sI199
I1
sI200
I2
sI201
I3
sI202
I3
sI203
I1
sI204
I1
sI205
I2
sI206
I1
sI207
I2
sI208
I1
sI209
I1
sI210
I2
sI211
I1
sI212
I3
sI213
I2
sI214
I3
sI215
I0
sI216
I2
sI217
I1
sI218
I0
sI219
I3
sI220
I1
sI221
I2
sI222
I2
sI223
I2
sI224
I3
sI225
I1
sI226
I0
sI227
I1
sI228
I3
sI229
I2
sI230
I0
sI231
I1
sI232
I0
sI233
I1
sI234
I3
sI235
I0
sI236
I2
sI237
I2
sI238
I1
sI239
I2
sI240
I0
sI241
I2
sI242
I0
sI243
I3
sI244
I0
sI245
I2
sI246
I1
sI247
I0
sI248
I1
sI249
I1
sI250
I0
sI251
I3
sI252
I1
sI253
I3
sI254
I1
sI255
I3
ssI7
(dp11
I0
I1
sI1
I1
sI2
I1
sI3
I1
sI4
I1
sI5
I1
sI6
I1
sI7
I1
sI8
I0
sI9
I0
sI10
I1
sI11
I1
sI12
I1
sI13
I1
sI14
I1
sI15
I1
sI16
I1
sI17
I1
sI18
I1
sI19
I1
sI20
I1
sI21
I1
sI22
I1
sI23
I1
sI24
I1
sI25
I0
sI26
I1
sI27
I0
sI28
I0
sI29
I0
sI30
I1
sI31
I0
sI32
I1
sI33
I1
sI34
I1
sI35
I1
sI36
I1
sI37
I1
sI38
I1
sI39
I0
sI40
I1
sI41
I0
sI42
I0
sI43
I0
sI44
I0
sI45
I0
sI46
I0
sI47
I1
sI48
I1
sI49
I1
sI50
I0
sI51
I0
sI52
I1
sI53
I1
sI54
I1
sI55
I1
sI56
I1
sI57
I0
sI58
I0
sI59
I1
sI60
I1
sI61
I0
sI62
I1
sI63
I1
sI64
I1
sI65
I1
sI66
I1
sI67
I0
sI68
I1
sI69
I1
sI70
I1
sI71
I1
sI72
I0
sI73
I1
sI74
I1
sI75
I0
sI76
I0
sI77
I0
sI78
I1
sI79
I1
sI80
I1
sI81
I0
sI82
I0
sI83
I0
sI84
I1
sI85
I1
sI86
I0
sI87
I1
sI88
I0
sI89
I1
sI90
I1
sI91
I0
sI92
I0
sI93
I0
sI94
I0
sI95
I0
sI96
I0
sI97
I1
sI98
I1
sI99
I1
sI100
I1
sI101
I1
sI102
I1
sI103
I1
sI104
I1
sI105
I1
sI106
I1
sI107
I1
sI108
I1
sI109
I0
sI110
I1
sI111
I0
sI112
I1
sI113
I1
sI114
I1
sI115
I1
sI116
I1
sI117
I1
sI118
I0
sI119
I1
sI120
I1
sI121
I1
sI122
I1
sI123
I1
sI124
I1
sI125
I0
sI126
I0
sI127
I0
sI128
I0
sI129
I0
sI130
I1
sI131
I1
sI132
I1
sI133
I1
sI134
I1
sI135
I1
sI136
I0
sI137
I0
sI138
I1
sI139
I1
sI140
I1
sI141
I0
sI142
I1
sI143
I1
sI144
I1
sI145
I1
sI146
I1
sI147
I1
sI148
I1
sI149
I1
sI150
I0
sI151
I1
sI152
I1
sI153
I1
sI154
I1
sI155
I1
sI156
I0
sI157
I0
sI158
I0
sI159
I0
sI160
I1
sI161
I0
sI162
I1
sI163
I1
sI164
I1
sI165
I1
sI166
I1
sI167
I1
sI168
I1
sI169
I1
sI170
I1
sI171
I0
sI172
I0
sI173
I0
sI174
I0
sI175
I0
sI176
I1
sI177
I1
sI178
I1
sI179
I0
sI180
I1
sI181
I1
sI182
I0
sI183
I1
sI184
I1
sI185
I0
sI186
I1
sI187
I1
sI188
I1
sI189
I0
sI190
I1
sI191
I1
sI192
I1
sI193
I1
sI194
I1
sI195
I1
sI196
I1
sI197
I1
sI198
I0
sI199
I0
sI200
I1
sI201
I1
sI202
I1
sI203
I1
sI204
I1
sI205
I0
sI206
I1
sI207
I1
sI208
I1
sI209
I1
sI210
I1
sI211
I0
sI212
I1
sI213
I1
sI214
I0
sI215
I1
sI216
I1
sI217
I1
sI218
I1
sI219
I1
sI220
I1
sI221
I1
sI222
I1
sI223
I1
sI224
I1
sI225
I1
sI226
I1
sI227
I0
sI228
I0
sI229
I0
sI230
I0
sI231
I1
sI232
I1
sI233
I1
sI234
I1
sI235
I1
sI236
I1
sI237
I1
sI238
I0
sI239
I1
sI240
I1
sI241
I1
sI242
I1
sI243
I1
sI244
I1
sI245
I1
sI246
I1
sI247
I1
sI248
I1
sI249
I1
sI250
I1
sI251
I0
sI252
I1
sI253
I1
sI254
I1
sI255
I1
ssI8
(dp12
I0
I1
sI1
I1
sI2
I0
sI3
I1
sI4
I1
sI5
I1
sI6
I0
sI7
I0
sI8
I1
sI9
I1
sI10
I1
sI11
I1
sI12
I1
sI13
I1
sI14
I1
sI15
I1
sI16
I1
sI17
I0
sI18
I1
sI19
I0
sI20
I0
sI21
I0
sI22
I1
sI23
I1
sI24
I1
sI25
I1
sI26
I1
sI27
I1
sI28
I1
sI29
I1
sI30
I1
sI31
I1
sI32
I1
sI33
I0
sI34
I0
sI35
I0
sI36
I1
sI37
I0
sI38
I1
sI39
I1
sI40
I0
sI41
I1
sI42
I1
sI43
I1
sI44
I0
sI45
I1
sI46
I1
sI47
I0
sI48
I1
sI49
I1
sI50
I0
sI51
I1
sI52
I1
sI53
I1
sI54
I1
sI55
I1
sI56
I0
sI57
I0
sI58
I0
sI59
I1
sI60
I1
sI61
I0
sI62
I1
sI63
I0
sI64
I1
sI65
I1
sI66
I0
sI67
I0
sI68
I0
sI69
I0
sI70
I1
sI71
I1
sI72
I0
sI73
I1
sI74
I1
sI75
I1
sI76
I1
sI77
I1
sI78
I0
sI79
I1
sI80
I0
sI81
I1
sI82
I0
sI83
I0
sI84
I0
sI85
I1
sI86
I1
sI87
I1
sI88
I1
sI89
I1
sI90
I1
sI91
I0
sI92
I1
sI93
I0
sI94
I1
sI95
I0
sI96
I1
sI97
I1
sI98
I1
sI99
I0
sI100
I1
sI101
I0
sI102
I1
sI103
I0
sI104
I1
sI105
I1
sI106
I1
sI107
I1
sI108
I1
sI109
I0
sI110
I0
sI111
I0
sI112
I1
sI113
I1
sI114
I1
sI115
I1
sI116
I1
sI117
I1
sI118
I1
sI119
I1
sI120
I0
sI121
I0
sI122
I1
sI123
I0
sI124
I0
sI125
I0
sI126
I0
sI127
I0
sI128
I1
sI129
I1
sI130
I0
sI131
I1
sI132
I1
sI133
I1
sI134
I0
sI135
I0
sI136
I1
sI137
I1
sI138
I1
sI139
I0
sI140
I0
sI141
I0
sI142
I0
sI143
I1
sI144
I1
sI145
I0
sI146
I1
sI147
I1
sI148
I0
sI149
I1
sI150
I1
sI151
I1
sI152
I0
sI153
I0
sI154
I0
sI155
I1
sI156
I0
sI157
I0
sI158
I0
sI159
I0
sI160
I1
sI161
I0
sI162
I1
sI163
I1
sI164
I1
sI165
I0
sI166
I0
sI167
I1
sI168
I1
sI169
I1
sI170
I1
sI171
I1
sI172
I0
sI173
I0
sI174
I0
sI175
I0
sI176
I0
sI177
I0
sI178
I0
sI179
I1
sI180
I1
sI181
I1
sI182
I1
sI183
I1
sI184
I1
sI185
I1
sI186
I1
sI187
I0
sI188
I0
sI189
I1
sI190
I0
sI191
I0
sI192
I0
sI193
I1
sI194
I0
sI195
I1
sI196
I0
sI197
I1
sI198
I1
sI199
I1
sI200
I1
sI201
I0
sI202
I0
sI203
I1
sI204
I0
sI205
I0
sI206
I1
sI207
I0
sI208
I1
sI209
I1
sI210
I0
sI211
I0
sI212
I1
sI213
I1
sI214
I1
sI215
I0
sI216
I1
sI217
I1
sI218
I1
sI219
I1
sI220
I0
sI221
I0
sI222
I1
sI223
I0
sI224
I0
sI225
I1
sI226
I1
sI227
I1
sI228
I1
sI229
I0
sI230
I1
sI231
I1
sI232
I1
sI233
I1
sI234
I1
sI235
I0
sI236
I0
sI237
I1
sI238
I1
sI239
I0
sI240
I1
sI241
I1
sI242
I1
sI243
I1
sI244
I1
sI245
I1
sI246
I1
sI247
I1
sI248
I1
sI249
I1
sI250
I0
sI251
I0
sI252
I1
sI253
I1
sI254
I0
sI255
I1
ssI9
(dp13
I0
I1
sI1
I0
sI2
I0
sI3
I0
sI4
I0
sI5
I0
sI6
I0
sI7
I0
sI8
I1
sI9
I1
sI10
I0
sI11
I0
sI12
I1
sI13
I0
sI14
I0
sI15
I0
sI16
I0
sI17
I0
sI18
I0
sI19
I0
sI20
I0
sI21
I0
sI22
I0
sI23
I0
sI24
I0
sI25
I1
sI26
I1
sI27
I0
sI28
I0
sI29
I0
sI30
I1
sI31
I0
sI32
I0
sI33
I1
sI34
I0
sI35
I0
sI36
I0
sI37
I0
sI38
I0
sI39
I1
sI40
I1
sI41
I0
sI42
I1
sI43
I0
sI44
I1
sI45
I1
sI46
I1
sI47
I1
sI48
I1
sI49
I0
sI50
I1
sI51
I0
sI52
I1
sI53
I1
sI54
I0
sI55
I0
sI56
I1
sI57
I1
sI58
I0
sI59
I0
sI60
I0
sI61
I1
sI62
I1
sI63
I0
sI64
I0
sI65
I0
sI66
I0
sI67
I1
sI68
I0
sI69
I0
sI70
I0
sI71
I0
sI72
I1
sI73
I0
sI74
I0
sI75
I0
sI76
I1
sI77
I0
sI78
I1
sI79
I0
sI80
I0
sI81
I0
sI82
I0
sI83
I1
sI84
I0
sI85
I0
sI86
I1
sI87
I0
sI88
I0
sI89
I1
sI90
I1
sI91
I0
sI92
I0
sI93
I0
sI94
I0
sI95
I1
sI96
I0
sI97
I0
sI98
I1
sI99
I1
sI100
I1
sI101
I1
sI102
I0
sI103
I0
sI104
I1
sI105
I1
sI106
I1
sI107
I0
sI108
I0
sI109
I0
sI110
I0
sI111
I1
sI112
I0
sI113
I0
sI114
I0
sI115
I0
sI116
I0
sI117
I0
sI118
I0
sI119
I0
sI120
I0
sI121
I1
sI122
I0
sI123
I0
sI124
I0
sI125
I1
sI126
I0
sI127
I0
sI128
I0
sI129
I0
sI130
I0
sI131
I0
sI132
I0
sI133
I0
sI134
I1
sI135
I0
sI136
I1
sI137
I0
sI138
I1
sI139
I0
sI140
I0
sI141
I0
sI142
I0
sI143
I0
sI144
I1
sI145
I0
sI146
I0
sI147
I0
sI148
I0
sI149
I1
sI150
I0
sI151
I0
sI152
I1
sI153
I0
sI154
I1
sI155
I1
sI156
I1
sI157
I1
sI158
I0
sI159
I0
sI160
I0
sI161
I0
sI162
I0
sI163
I0
sI164
I0
sI165
I0
sI166
I1
sI167
I1
sI168
I1
sI169
I0
sI170
I0
sI171
I0
sI172
I1
sI173
I1
sI174
I1
sI175
I1
sI176
I0
sI177
I0
sI178
I0
sI179
I0
sI180
I0
sI181
I1
sI182
I1
sI183
I1
sI184
I0
sI185
I0
sI186
I0
sI187
I1
sI188
I1
sI189
I0
sI190
I0
sI191
I0
sI192
I1
sI193
I0
sI194
I1
sI195
I0
sI196
I0
sI197
I0
sI198
I1
sI199
I1
sI200
I0
sI201
I0
sI202
I0
sI203
I0
sI204
I1
sI205
I0
sI206
I0
sI207
I1
sI208
I1
sI209
I1
sI210
I0
sI211
I1
sI212
I1
sI213
I1
sI214
I1
sI215
I0
sI216
I1
sI217
I1
sI218
I0
sI219
I1
sI220
I0
sI221
I1
sI222
I1
sI223
I1
sI224
I0
sI225
I0
sI226
I1
sI227
I1
sI228
I1
sI229
I1
sI230
I1
sI231
I0
sI232
I1
sI233
I0
sI234
I1
sI235
I1
sI236
I1
sI237
I0
sI238
I1
sI239
I1
sI240
I0
sI241
I1
sI242
I0
sI243
I1
sI244
I1
sI245
I1
sI246
I1
sI247
I1
sI248
I1
sI249
I0
sI250
I0
sI251
I0
sI252
I0
sI253
I1
sI254
I1
sI255
I0
ssI10
(dp14
I0
I1
sI1
I0
sI2
I0
sI3
I1
sI4
I0
sI5
I1
sI6
I1
sI7
I1
sI8
I1
sI9
I1
sI10
I1
sI11
I1
sI12
I1
sI13
I1
sI14
I1
sI15
I0
sI16
I1
sI17
I1
sI18
I1
sI19
I1
sI20
I1
sI21
I1
sI22
I1
sI23
I1
sI24
I1
sI25
I1
sI26
I1
sI27
I1
sI28
I0
sI29
I1
sI30
I0
sI31
I1
sI32
I1
sI33
I0
sI34
I1
sI35
I1
sI36
I1
sI37
I1
sI38
I1
sI39
I1
sI40
I1
sI41
I1
sI42
I0
sI43
I0
sI44
I0
sI45
I0
sI46
I0
sI47
I0
sI48
I0
sI49
I1
sI50
I1
sI51
I0
sI52
I1
sI53
I0
sI54
I1
sI55
I1
sI56
I0
sI57
I0
sI58
I0
sI59
I1
sI60
I0
sI61
I1
sI62
I0
sI63
I1
sI64
I1
sI65
I1
sI66
I1
sI67
I0
sI68
I1
sI69
I1
sI70
I1
sI71
I1
sI72
I1
sI73
I1
sI74
I1
sI75
I1
sI76
I0
sI77
I0
sI78
I1
sI79
I1
sI80
I1
sI81
I1
sI82
I1
sI83
I1
sI84
I1
sI85
I1
sI86
I0
sI87
I0
sI88
I1
sI89
I1
sI90
I1
sI91
I1
sI92
I1
sI93
I1
sI94
I1
sI95
I1
sI96
I1
sI97
I0
sI98
I1
sI99
I1
sI100
I1
sI101
I0
sI102
I0
sI103
I1
sI104
I1
sI105
I1
sI106
I1
sI107
I1
sI108
I1
sI109
I1
sI110
I1
sI111
I0
sI112
I1
sI113
I1
sI114
I0
sI115
I1
sI116
I1
sI117
I1
sI118
I0
sI119
I1
sI120
I0
sI121
I1
sI122
I1
sI123
I1
sI124
I1
sI125
I1
sI126
I1
sI127
I1
sI128
I1
sI129
I1
sI130
I0
sI131
I0
sI132
I1
sI133
I1
sI134
I1
sI135
I1
sI136
I0
sI137
I1
sI138
I0
sI139
I1
sI140
I1
sI141
I1
sI142
I1
sI143
I1
sI144
I1
sI145
I1
sI146
I0
sI147
I1
sI148
I1
sI149
I1
sI150
I0
sI151
I0
sI152
I0
sI153
I0
sI154
I1
sI155
I1
sI156
I0
sI157
I1
sI158
I1
sI159
I1
sI160
I1
sI161
I1
sI162
I1
sI163
I1
sI164
I1
sI165
I0
sI166
I0
sI167
I0
sI168
I0
sI169
I1
sI170
I1
sI171
I0
sI172
I1
sI173
I0
sI174
I0
sI175
I0
sI176
I1
sI177
I1
sI178
I1
sI179
I1
sI180
I1
sI181
I0
sI182
I0
sI183
I0
sI184
I0
sI185
I0
sI186
I1
sI187
I1
sI188
I1
sI189
I1
sI190
I1
sI191
I1
sI192
I1
sI193
I1
sI194
I1
sI195
I1
sI196
I1
sI197
I1
sI198
I0
sI199
I1
sI200
I1
sI201
I0
sI202
I1
sI203
I0
sI204
I1
sI205
I0
sI206
I1
sI207
I1
sI208
I1
sI209
I1
sI210
I0
sI211
I0
sI212
I0
sI213
I0
sI214
I0
sI215
I1
sI216
I1
sI217
I1
sI218
I1
sI219
I1
sI220
I0
sI221
I0
sI222
I1
sI223
I1
sI224
I1
sI225
I1
sI226
I1
sI227
I1
sI228
I0
sI229
I0
sI230
I0
sI231
I1
sI232
I0
sI233
I1
sI234
I1
sI235
I1
sI236
I1
sI237
I1
sI238
I1
sI239
I1
sI240
I1
sI241
I0
sI242
I1
sI243
I1
sI244
I1
sI245
I1
sI246
I1
sI247
I1
sI248
I1
sI249
I1
sI250
I1
sI251
I1
sI252
I1
sI253
I1
sI254
I0
sI255
I1
ssI11
(dp15
I0
I2
sI1
I2
sI2
I2
sI3
I2
sI4
I0
sI5
I2
sI6
I0
sI7
I1
sI8
I0
sI9
I1
sI10
I2
sI11
I2
sI12
I2
sI13
I2
sI14
I2
sI15
I0
sI16
I0
sI17
I2
sI18
I1
sI19
I2
sI20
I2
sI21
I0
sI22
I2
sI23
I2
sI24
I1
sI25
I1
sI26
I0
sI27
I1
sI28
I3
sI29
I3
sI30
I2
sI31
I3
sI32
I2
sI33
I3
sI34
I1
sI35
I2
sI36
I2
sI37
I2
sI38
I2
sI39
I3
sI40
I3
sI41
I3
sI42
I1
sI43
I0
sI44
I1
sI45
I3
sI46
I2
sI47
I3
sI48
I0
sI49
I0
sI50
I1
sI51
I2
sI52
I1
sI53
I2
sI54
I1
sI55
I3
sI56
I3
sI57
I1
sI58
I1
sI59
I3
sI60
I2
sI61
I3
sI62
I3
sI63
I2
sI64
I2
sI65
I2
sI66
I0
sI67
I2
sI68
I0
sI69
I2
sI70
I2
sI71
I2
sI72
I2
sI73
I2
sI74
I3
sI75
I2
sI76
I0
sI77
I3
sI78
I3
sI79
I2
sI80
I2
sI81
I3
sI82
I2
sI83
I2
sI84
I2
sI85
I3
sI86
I2
sI87
I2
sI88
I1
sI89
I2
sI90
I2
sI91
I2
sI92
I0
sI93
I2
sI94
I0
sI95
I0
sI96
I0
sI97
I3
sI98
I2
sI99
I3
sI100
I3
sI101
I3
sI102
I0
sI103
I1
sI104
I0
sI105
I2
sI106
I0
sI107
I0
sI108
I0
sI109
I0
sI110
I0
sI111
I0
sI112
I2
sI113
I2
sI114
I0
sI115
I3
sI116
I3
sI117
I2
sI118
I3
sI119
I2
sI120
I3
sI121
I0
sI122
I0
sI123
I0
sI124
I0
sI125
I0
sI126
I0
sI127
I2
sI128
I1
sI129
I2
sI130
I2
sI131
I3
sI132
I2
sI133
I2
sI134
I2
sI135
I0
sI136
I2
sI137
I2
sI138
I0
sI139
I1
sI140
I2
sI141
I0
sI142
I0
sI143
I2
sI144
I2
sI145
I3
sI146
I2
sI147
I2
sI148
I1
sI149
I3
sI150
I2
sI151
I3
sI152
I1
sI153
I1
sI154
I0
sI155
I1
sI156
I3
sI157
I2
sI158
I2
sI159
I2
sI160
I3
sI161
I2
sI162
I1
sI163
I3
sI164
I0
sI165
I1
sI166
I1
sI167
I1
sI168
I1
sI169
I1
sI170
I1
sI171
I3
sI172
I3
sI173
I1
sI174
I3
sI175
I2
sI176
I2
sI177
I0
sI178
I2
sI179
I1
sI180
I2
sI181
I2
sI182
I1
sI183
I2
sI184
I1
sI185
I2
sI186
I1
sI187
I1
sI188
I3
sI189
I2
sI190
I3
sI191
I3
sI192
I3
sI193
I3
sI194
I2
sI195
I2
sI196
I3
sI197
I3
sI198
I3
sI199
I1
sI200
I1
sI201
I0
sI202
I1
sI203
I0
sI204
I1
sI205
I3
sI206
I0
sI207
I1
sI208
I2
sI209
I1
sI210
I0
sI211
I3
sI212
I1
sI213
I2
sI214
I0
sI215
I2
sI216
I3
sI217
I2
sI218
I2
sI219
I3
sI220
I0
sI221
I0
sI222
I0
sI223
I0
sI224
I2
sI225
I2
sI226
I1
sI227
I3
sI228
I1
sI229
I1
sI230
I3
sI231
I1
sI232
I3
sI233
I3
sI234
I3
sI235
I1
sI236
I1
sI237
I3
sI238
I1
sI239
I0
sI240
I3
sI241
I1
sI242
I3
sI243
I2
sI244
I1
sI245
I0
sI246
I1
sI247
I3
sI248
I0
sI249
I1
sI250
I2
sI251
I1
sI252
I3
sI253
I0
sI254
I2
sI255
I2
ssI12
(dp16
I0
I1
sI1
I1
sI2
I0
sI3
I1
sI4
I1
sI5
I0
sI6
I1
sI7
I0
sI8
I0
sI9
I0
sI10
I1
sI11
I1
sI12
I1
sI13
I0
sI14
I1
sI15
I0
sI16
I0
sI17
I1
sI18
I0
sI19
I0
sI20
I1
sI21
I1
sI22
I0
sI23
I1
sI24
I0
sI25
I0
sI26
I1
sI27
I0
sI28
I0
sI29
I0
sI30
I1
sI31
I0
sI32
I0
sI33
I0
sI34
I1
sI35
I1
sI36
I1
sI37
I0
sI38
I0
sI39
I1
sI40
I0
sI41
I0
sI42
I0
sI43
I0
sI44
I0
sI45
I0
sI46
I0
sI47
I0
sI48
I0
sI49
I0
sI50
I1
sI51
I0
sI52
I1
sI53
I0
sI54
I1
sI55
I1
sI56
I1
sI57
I0
sI58
I0
sI59
I0
sI60
I0
sI61
I0
sI62
I0
sI63
I0
sI64
I1
sI65
I1
sI66
I1
sI67
I0
sI68
I1
sI69
I0
sI70
I1
sI71
I1
sI72
I1
sI73
I1
sI74
I0
sI75
I1
sI76
I0
sI77
I1
sI78
I0
sI79
I1
sI80
I1
sI81
I0
sI82
I1
sI83
I1
sI84
I1
sI85
I1
sI86
I1
sI87
I1
sI88
I1
sI89
I1
sI90
I1
sI91
I1
sI92
I0
sI93
I1
sI94
I1
sI95
I1
sI96
I1
sI97
I1
sI98
I1
sI99
I0
sI100
I1
sI101
I1
sI102
I1
sI103
I1
sI104
I1
sI105
I1
sI106
I0
sI107
I1
sI108
I1
sI109
I1
sI110
I1
sI111
I1
sI112
I1
sI113
I1
sI114
I0
sI115
I1
sI116
I1
sI117
I1
sI118
I0
sI119
I1
sI120
I1
sI121
I1
sI122
I0
sI123
I1
sI124
I1
sI125
I0
sI126
I0
sI127
I1
sI128
I1
sI129
I1
sI130
I0
sI131
I0
sI132
I1
sI133
I1
sI134
I1
sI135
I1
sI136
I0
sI137
I0
sI138
I1
sI139
I0
sI140
I1
sI141
I0
sI142
I1
sI143
I1
sI144
I1
sI145
I1
sI146
I1
sI147
I1
sI148
I1
sI149
I1
sI150
I1
sI151
I1
sI152
I0
sI153
I0
sI154
I0
sI155
I1
sI156
I1
sI157
I1
sI158
I1
sI159
I1
sI160
I1
sI161
I1
sI162
I1
sI163
I1
sI164
I1
sI165
I1
sI166
I1
sI167
I1
sI168
I1
sI169
I0
sI170
I1
sI171
I1
sI172
I0
sI173
I1
sI174
I1
sI175
I1
sI176
I0
sI177
I1
sI178
I1
sI179
I1
sI180
I1
sI181
I1
sI182
I1
sI183
I1
sI184
I1
sI185
I1
sI186
I1
sI187
I1
sI188
I1
sI189
I1
sI190
I1
sI191
I1
sI192
I1
sI193
I0
sI194
I1
sI195
I1
sI196
I1
sI197
I0
sI198
I0
sI199
I1
sI200
I1
sI201
I1
sI202
I1
sI203
I1
sI204
I1
sI205
I1
sI206
I1
sI207
I1
sI208
I1
sI209
I1
sI210
I0
sI211
I0
sI212
I0
sI213
I0
sI214
I0
sI215
I1
sI216
I1
sI217
I1
sI218
I1
sI219
I1
sI220
I1
sI221
I1
sI222
I0
sI223
I1
sI224
I1
sI225
I1
sI226
I1
sI227
I0
sI228
I1
sI229
I1
sI230
I1
sI231
I1
sI232
I1
sI233
I1
sI234
I1
sI235
I1
sI236
I1
sI237
I1
sI238
I1
sI239
I1
sI240
I1
sI241
I1
sI242
I1
sI243
I0
sI244
I0
sI245
I1
sI246
I1
sI247
I1
sI248
I1
sI249
I1
sI250
I1
sI251
I1
sI252
I1
sI253
I1
sI254
I1
sI255
I1
ssI13
(dp17
I0
I2
sI1
I2
sI2
I2
sI3
I2
sI4
I0
sI5
I2
sI6
I0
sI7
I2
sI8
I2
sI9
I1
sI10
I0
sI11
I2
sI12
I1
sI13
I1
sI14
I0
sI15
I1
sI16
I0
sI17
I2
sI18
I0
sI19
I0
sI20
I2
sI21
I0
sI22
I0
sI23
I2
sI24
I0
sI25
I2
sI26
I1
sI27
I2
sI28
I1
sI29
I1
sI30
I1
sI31
I0
sI32
I0
sI33
I0
sI34
I0
sI35
I2
sI36
I2
sI37
I0
sI38
I2
sI39
I0
sI40
I0
sI41
I0
sI42
I1
sI43
I1
sI44
I1
sI45
I1
sI46
I1
sI47
I1
sI48
I2
sI49
I0
sI50
I1
sI51
I1
sI52
I1
sI53
I2
sI54
I0
sI55
I2
sI56
I2
sI57
I1
sI58
I1
sI59
I1
sI60
I1
sI61
I1
sI62
I2
sI63
I0
sI64
I0
sI65
I2
sI66
I1
sI67
I1
sI68
I1
sI69
I0
sI70
I2
sI71
I0
sI72
I0
sI73
I1
sI74
I1
sI75
I2
sI76
I1
sI77
I1
sI78
I2
sI79
I1
sI80
I0
sI81
I0
sI82
I0
sI83
I1
sI84
I2
sI85
I2
sI86
I0
sI87
I0
sI88
I0
sI89
I2
sI90
I0
sI91
I2
sI92
I1
sI93
I0
sI94
I0
sI95
I1
sI96
I0
sI97
I2
sI98
I2
sI99
I2
sI100
I0
sI101
I2
sI102
I0
sI103
I0
sI104
I0
sI105
I2
sI106
I2
sI107
I0
sI108
I2
sI109
I0
sI110
I1
sI111
I2
sI112
I2
sI113
I1
sI114
I2
sI115
I2
sI116
I2
sI117
I2
sI118
I2
sI119
I2
sI120
I2
sI121
I2
sI122
I2
sI123
I2
sI124
I0
sI125
I0
sI126
I0
sI127
I2
sI128
I0
sI129
I1
sI130
I2
sI131
I0
sI132
I2
sI133
I2
sI134
I2
sI135
I0
sI136
I1
sI137
I2
sI138
I2
sI139
I0
sI140
I2
sI141
I0
sI142
I0
sI143
I2
sI144
I0
sI145
I0
sI146
I2
sI147
I2
sI148
I2
sI149
I1
sI150
I0
sI151
I2
sI152
I1
sI153
I2
sI154
I1
sI155
I0
sI156
I0
sI157
I0
sI158
I0
sI159
I2
sI160
I0
sI161
I2
sI162
I0
sI163
I0
sI164
I2
sI165
I0
sI166
I0
sI167
I2
sI168
I1
sI169
I1
sI170
I1
sI171
I2
sI172
I2
sI173
I2
sI174
I0
sI175
I0
sI176
I2
sI177
I0
sI178
I2
sI179
I2
sI180
I0
sI181
I2
sI182
I0
sI183
I2
sI184
I1
sI185
I2
sI186
I0
sI187
I0
sI188
I2
sI189
I1
sI190
I0
sI191
I2
sI192
I0
sI193
I0
sI194
I0
sI195
I2
sI196
I1
sI197
I0
sI198
I0
sI199
I2
sI200
I0
sI201
I2
sI202
I0
sI203
I0
sI204
I0
sI205
I1
sI206
I0
sI207
I1
sI208
I1
sI209
I2
sI210
I2
sI211
I2
sI212
I0
sI213
I0
sI214
I0
sI215
I2
sI216
I0
sI217
I0
sI218
I2
sI219
I0
sI220
I0
sI221
I1
sI222
I0
sI223
I1
sI224
I0
sI225
I2
sI226
I0
sI227
I0
sI228
I0
sI229
I0
sI230
I1
sI231
I0
sI232
I0
sI233
I0
sI234
I1
sI235
I0
sI236
I0
sI237
I1
sI238
I0
sI239
I0
sI240
I2
sI241
I2
sI242
I0
sI243
I0
sI244
I2
sI245
I1
sI246
I1
sI247
I2
sI248
I2
sI249
I0
sI250
I0
sI251
I0
sI252
I0
sI253
I0
sI254
I0
sI255
I0
ssI14
(dp18
I0
I1
sI1
I0
sI2
I1
sI3
I1
sI4
I1
sI5
I1
sI6
I2
sI7
I2
sI8
I0
sI9
I0
sI10
I0
sI11
I2
sI12
I2
sI13
I1
sI14
I2
sI15
I2
sI16
I1
sI17
I1
sI18
I2
sI19
I0
sI20
I0
sI21
I0
sI22
I2
sI23
I0
sI24
I2
sI25
I2
sI26
I0
sI27
I0
sI28
I1
sI29
I2
sI30
I1
sI31
I0
sI32
I0
sI33
I0
sI34
I1
sI35
I1
sI36
I1
sI37
I1
sI38
I2
sI39
I0
sI40
I0
sI41
I2
sI42
I1
sI43
I1
sI44
I1
sI45
I2
sI46
I2
sI47
I0
sI48
I2
sI49
I1
sI50
I2
sI51
I0
sI52
I0
sI53
I0
sI54
I0
sI55
I1
sI56
I0
sI57
I2
sI58
I0
sI59
I0
sI60
I0
sI61
I0
sI62
I0
sI63
I0
sI64
I2
sI65
I2
sI66
I2
sI67
I2
sI68
I0
sI69
I0
sI70
I1
sI71
I2
sI72
I2
sI73
I0
sI74
I0
sI75
I1
sI76
I0
sI77
I0
sI78
I2
sI79
I1
sI80
I1
sI81
I1
sI82
I2
sI83
I2
sI84
I2
sI85
I1
sI86
I0
sI87
I0
sI88
I1
sI89
I2
sI90
I2
sI91
I0
sI92
I2
sI93
I2
sI94
I2
sI95
I2
sI96
I2
sI97
I0
sI98
I2
sI99
I0
sI100
I2
sI101
I1
sI102
I0
sI103
I1
sI104
I1
sI105
I0
sI106
I0
sI107
I2
sI108
I1
sI109
I0
sI110
I1
sI111
I0
sI112
I0
sI113
I1
sI114
I0
sI115
I2
sI116
I2
sI117
I0
sI118
I1
sI119
I1
sI120
I0
sI121
I1
sI122
I0
sI123
I0
sI124
I0
sI125
I1
sI126
I0
sI127
I2
sI128
I0
sI129
I1
sI130
I1
sI131
I1
sI132
I1
sI133
I1
sI134
I1
sI135
I2
sI136
I1
sI137
I1
sI138
I1
sI139
I1
sI140
I1
sI141
I1
sI142
I0
sI143
I0
sI144
I1
sI145
I1
sI146
I0
sI147
I1
sI148
I0
sI149
I0
sI150
I1
sI151
I1
sI152
I1
sI153
I1
sI154
I1
sI155
I1
sI156
I0
sI157
I1
sI158
I0
sI159
I2
sI160
I1
sI161
I0
sI162
I1
sI163
I1
sI164
I1
sI165
I1
sI166
I2
sI167
I0
sI168
I2
sI169
I0
sI170
I0
sI171
I1
sI172
I1
sI173
I0
sI174
I1
sI175
I1
sI176
I1
sI177
I1
sI178
I0
sI179
I0
sI180
I1
sI181
I2
sI182
I0
sI183
I2
sI184
I1
sI185
I1
sI186
I0
sI187
I1
sI188
I2
sI189
I0
sI190
I1
sI191
I0
sI192
I1
sI193
I0
sI194
I1
sI195
I1
sI196
I2
sI197
I0
sI198
I2
sI199
I1
sI200
I2
sI201
I1
sI202
I0
sI203
I0
sI204
I0
sI205
I0
sI206
I0
sI207
I2
sI208
I0
sI209
I2
sI210
I1
sI211
I1
sI212
I0
sI213
I0
sI214
I2
sI215
I1
sI216
I0
sI217
I2
sI218
I2
sI219
I2
sI220
I2
sI221
I0
sI222
I2
sI223
I1
sI224
I2
sI225
I1
sI226
I1
sI227
I2
sI228
I0
sI229
I0
sI230
I0
sI231
I0
sI232
I1
sI233
I2
sI234
I2
sI235
I2
sI236
I2
sI237
I2
sI238
I2
sI239
I1
sI240
I1
sI241
I0
sI242
I1
sI243
I1
sI244
I0
sI245
I0
sI246
I0
sI247
I2
sI248
I2
sI249
I1
sI250
I1
sI251
I1
sI252
I1
sI253
I2
sI254
I1
sI255
I2
ssI15
(dp19
I0
I1
sI1
I0
sI2
I1
sI3
I0
sI4
I0
sI5
I0
sI6
I1
sI7
I1
sI8
I0
sI9
I0
sI10
I0
sI11
I1
sI12
I1
sI13
I0
sI14
I1
sI15
I0
sI16
I0
sI17
I0
sI18
I0
sI19
I1
sI20
I0
sI21
I0
sI22
I1
sI23
I1
sI24
I1
sI25
I1
sI26
I1
sI27
I1
sI28
I1
sI29
I1
sI30
I0
sI31
I0
sI32
I0
sI33
I0
sI34
I0
sI35
I0
sI36
I1
sI37
I0
sI38
I0
sI39
I0
sI40
I1
sI41
I1
sI42
I1
sI43
I1
sI44
I1
sI45
I1
sI46
I1
sI47
I1
sI48
I0
sI49
I0
sI50
I1
sI51
I1
sI52
I0
sI53
I0
sI54
I1
sI55
I1
sI56
I0
sI57
I1
sI58
I1
sI59
I1
sI60
I1
sI61
I0
sI62
I0
sI63
I1
sI64
I0
sI65
I1
sI66
I1
sI67
I1
sI68
I0
sI69
I0
sI70
I1
sI71
I0
sI72
I1
sI73
I1
sI74
I1
sI75
I1
sI76
I1
sI77
I1
sI78
I0
sI79
I0
sI80
I0
sI81
I0
sI82
I1
sI83
I1
sI84
I0
sI85
I0
sI86
I0
sI87
I0
sI88
I0
sI89
I1
sI90
I0
sI91
I1
sI92
I0
sI93
I0
sI94
I0
sI95
I1
sI96
I0
sI97
I0
sI98
I0
sI99
I1
sI100
I0
sI101
I0
sI102
I1
sI103
I0
sI104
I0
sI105
I0
sI106
I1
sI107
I0
sI108
I0
sI109
I1
sI110
I1
sI111
I0
sI112
I0
sI113
I1
sI114
I1
sI115
I0
sI116
I0
sI117
I0
sI118
I0
sI119
I0
sI120
I0
sI121
I1
sI122
I0
sI123
I1
sI124
I0
sI125
I1
sI126
I0
sI127
I0
sI128
I0
sI129
I0
sI130
I0
sI131
I1
sI132
I0
sI133
I0
sI134
I0
sI135
I0
sI136
I0
sI137
I1
sI138
I0
sI139
I1
sI140
I1
sI141
I0
sI142
I1
sI143
I0
sI144
I0
sI145
I0
sI146
I0
sI147
I0
sI148
I1
sI149
I0
sI150
I1
sI151
I0
sI152
I0
sI153
I0
sI154
I1
sI155
I0
sI156
I0
sI157
I0
sI158
I0
sI159
I0
sI160
I0
sI161
I1
sI162
I0
sI163
I1
sI164
I0
sI165
I1
sI166
I1
sI167
I1
sI168
I0
sI169
I1
sI170
I0
sI171
I0
sI172
I0
sI173
I0
sI174
I0
sI175
I1
sI176
I1
sI177
I1
sI178
I1
sI179
I1
sI180
I1
sI181
I0
sI182
I0
sI183
I0
sI184
I1
sI185
I0
sI186
I0
sI187
I1
sI188
I0
sI189
I0
sI190
I1
sI191
I0
sI192
I1
sI193
I1
sI194
I0
sI195
I0
sI196
I0
sI197
I0
sI198
I0
sI199
I0
sI200
I1
sI201
I1
sI202
I0
sI203
I0
sI204
I1
sI205
I1
sI206
I0
sI207
I0
sI208
I1
sI209
I1
sI210
I1
sI211
I1
sI212
I0
sI213
I0
sI214
I0
sI215
I0
sI216
I0
sI217
I0
sI218
I0
sI219
I0
sI220
I1
sI221
I1
sI222
I0
sI223
I1
sI224
I1
sI225
I1
sI226
I1
sI227
I0
sI228
I1
sI229
I0
sI230
I1
sI231
I1
sI232
I0
sI233
I0
sI234
I0
sI235
I0
sI236
I0
sI237
I0
sI238
I0
sI239
I1
sI240
I1
sI241
I0
sI242
I1
sI243
I1
sI244
I0
sI245
I1
sI246
I0
sI247
I1
sI248
I0
sI249
I0
sI250
I0
sI251
I1
sI252
I0
sI253
I1
sI254
I0
sI255
I1
ssI16
(dp20
I0
I1
sI1
I2
sI2
I1
sI3
I2
sI4
I0
sI5
I1
sI6
I2
sI7
I2
sI8
I0
sI9
I0
sI10
I2
sI11
I0
sI12
I2
sI13
I0
sI14
I2
sI15
I2
sI16
I2
sI17
I1
sI18
I0
sI19
I0
sI20
I0
sI21
I2
sI22
I2
sI23
I2
sI24
I1
sI25
I0
sI26
I1
sI27
I2
sI28
I2
sI29
I2
sI30
I2
sI31
I1
sI32
I1
sI33
I1
sI34
I1
sI35
I0
sI36
I1
sI37
I1
sI38
I2
sI39
I0
sI40
I0
sI41
I2
sI42
I2
sI43
I2
sI44
I2
sI45
I2
sI46
I2
sI47
I2
sI48
I2
sI49
I2
sI50
I2
sI51
I2
sI52
I1
sI53
I1
sI54
I2
sI55
I1
sI56
I1
sI57
I2
sI58
I2
sI59
I2
sI60
I2
sI61
I2
sI62
I2
sI63
I0
sI64
I1
sI65
I2
sI66
I2
sI67
I2
sI68
I1
sI69
I0
sI70
I1
sI71
I1
sI72
I1
sI73
I1
sI74
I2
sI75
I2
sI76
I2
sI77
I2
sI78
I1
sI79
I0
sI80
I2
sI81
I1
sI82
I0
sI83
I0
sI84
I2
sI85
I2
sI86
I1
sI87
I1
sI88
I0
sI89
I1
sI90
I1
sI91
I2
sI92
I2
sI93
I2
sI94
I2
sI95
I2
sI96
I1
sI97
I0
sI98
I0
sI99
I0
sI100
I1
sI101
I0
sI102
I1
sI103
I2
sI104
I0
sI105
I0
sI106
I2
sI107
I2
sI108
I2
sI109
I2
sI110
I2
sI111
I0
sI112
I0
sI113
I2
sI114
I1
sI115
I0
sI116
I0
sI117
I1
sI118
I2
sI119
I1
sI120
I2
sI121
I1
sI122
I2
sI123
I0
sI124
I1
sI125
I1
sI126
I2
sI127
I2
sI128
I1
sI129
I1
sI130
I0
sI131
I0
sI132
I0
sI133
I0
sI134
I2
sI135
I2
sI136
I2
sI137
I2
sI138
I2
sI139
I2
sI140
I1
sI141
I1
sI142
I0
sI143
I2
sI144
I1
sI145
I0
sI146
I0
sI147
I0
sI148
I0
sI149
I1
sI150
I1
sI151
I2
sI152
I1
sI153
I1
sI154
I2
sI155
I1
sI156
I1
sI157
I2
sI158
I0
sI159
I1
sI160
I2
sI161
I1
sI162
I0
sI163
I0
sI164
I2
sI165
I1
sI166
I1
sI167
I1
sI168
I2
sI169
I1
sI170
I1
sI171
I1
sI172
I2
sI173
I1
sI174
I2
sI175
I2
sI176
I1
sI177
I1
sI178
I1
sI179
I2
sI180
I2
sI181
I2
sI182
I2
sI183
I1
sI184
I1
sI185
I2
sI186
I1
sI187
I0
sI188
I1
sI189
I1
sI190
I2
sI191
I1
sI192
I1
sI193
I2
sI194
I2
sI195
I1
sI196
I0
sI197
I2
sI198
I2
sI199
I1
sI200
I2
sI201
I2
sI202
I2
sI203
I0
sI204
I1
sI205
I1
sI206
I2
sI207
I1
sI208
I1
sI209
I1
sI210
I1
sI211
I0
sI212
I1
sI213
I2
sI214
I2
sI215
I1
sI216
I2
sI217
I2
sI218
I0
sI219
I2
sI220
I2
sI221
I2
sI222
I1
sI223
I1
sI224
I0
sI225
I2
sI226
I2
sI227
I0
sI228
I2
sI229
I0
sI230
I2
sI231
I2
sI232
I1
sI233
I1
sI234
I2
sI235
I0
sI236
I1
sI237
I1
sI238
I2
sI239
I0
sI240
I0
sI241
I2
sI242
I0
sI243
I1
sI244
I0
sI245
I1
sI246
I1
sI247
I0
sI248
I1
sI249
I1
sI250
I1
sI251
I2
sI252
I1
sI253
I1
sI254
I0
sI255
I2
ssI17
(dp21
I0
I1
sI1
I1
sI2
I1
sI3
I1
sI4
I1
sI5
I1
sI6
I1
sI7
I0
sI8
I0
sI9
I0
sI10
I1
sI11
I1
sI12
I1
sI13
I1
sI14
I1
sI15
I0
sI16
I0
sI17
I1
sI18
I1
sI19
I0
sI20
I1
sI21
I0
sI22
I1
sI23
I1
sI24
I1
sI25
I0
sI26
I1
sI27
I0
sI28
I1
sI29
I1
sI30
I1
sI31
I0
sI32
I0
sI33
I0
sI34
I0
sI35
I0
sI36
I0
sI37
I1
sI38
I1
sI39
I0
sI40
I0
sI41
I0
sI42
I0
sI43
I1
sI44
I1
sI45
I1
sI46
I1
sI47
I1
sI48
I0
sI49
I0
sI50
I1
sI51
I1
sI52
I0
sI53
I1
sI54
I0
sI55
I0
sI56
I0
sI57
I1
sI58
I0
sI59
I1
sI60
I1
sI61
I1
sI62
I1
sI63
I0
sI64
I0
sI65
I0
sI66
I0
sI67
I1
sI68
I1
sI69
I1
sI70
I1
sI71
I1
sI72
I0
sI73
I0
sI74
I0
sI75
I1
sI76
I1
sI77
I0
sI78
I0
sI79
I1
sI80
I1
sI81
I0
sI82
I1
sI83
I1
sI84
I1
sI85
I0
sI86
I1
sI87
I1
sI88
I0
sI89
I0
sI90
I0
sI91
I1
sI92
I1
sI93
I0
sI94
I1
sI95
I0
sI96
I0
sI97
I0
sI98
I0
sI99
I1
sI100
I1
sI101
I0
sI102
I0
sI103
I0
sI104
I0
sI105
I0
sI106
I1
sI107
I1
sI108
I1
sI109
I1
sI110
I0
sI111
I1
sI112
I0
sI113
I1
sI114
I1
sI115
I1
sI116
I0
sI117
I0
sI118
I1
sI119
I0
sI120
I0
sI121
I0
sI122
I0
sI123
I1
sI124
I1
sI125
I0
sI126
I0
sI127
I0
sI128
I0
sI129
I0
sI130
I0
sI131
I0
sI132
I0
sI133
I1
sI134
I1
sI135
I0
sI136
I0
sI137
I0
sI138
I0
sI139
I0
sI140
I0
sI141
I0
sI142
I1
sI143
I0
sI144
I0
sI145
I1
sI146
I0
sI147
I1
sI148
I0
sI149
I0
sI150
I0
sI151
I0
sI152
I0
sI153
I0
sI154
I0
sI155
I0
sI156
I1
sI157
I1
sI158
I1
sI159
I1
sI160
I0
sI161
I1
sI162
I0
sI163
I1
sI164
I1
sI165
I1
sI166
I0
sI167
I0
sI168
I0
sI169
I1
sI170
I1
sI171
I1
sI172
I1
sI173
I1
sI174
I0
sI175
I0
sI176
I0
sI177
I1
sI178
I1
sI179
I1
sI180
I1
sI181
I0
sI182
I0
sI183
I0
sI184
I0
sI185
I0
sI186
I1
sI187
I0
sI188
I1
sI189
I0
sI190
I0
sI191
I0
sI192
I0
sI193
I0
sI194
I1
sI195
I1
sI196
I1
sI197
I1
sI198
I1
sI199
I1
sI200
I0
sI201
I0
sI202
I0
sI203
I0
sI204
I0
sI205
I0
sI206
I0
sI207
I0
sI208
I0
sI209
I1
sI210
I1
sI211
I0
sI212
I1
sI213
I1
sI214
I1
sI215
I0
sI216
I0
sI217
I1
sI218
I0
sI219
I0
sI220
I0
sI221
I0
sI222
I0
sI223
I0
sI224
I0
sI225
I0
sI226
I0
sI227
I0
sI228
I1
sI229
I1
sI230
I1
sI231
I0
sI232
I0
sI233
I0
sI234
I1
sI235
I0
sI236
I1
sI237
I0
sI238
I0
sI239
I1
sI240
I1
sI241
I1
sI242
I0
sI243
I0
sI244
I1
sI245
I1
sI246
I1
sI247
I0
sI248
I0
sI249
I0
sI250
I1
sI251
I0
sI252
I0
sI253
I1
sI254
I0
sI255
I0
ssI18
(dp22
I0
I0
sI1
I1
sI2
I0
sI3
I1
sI4
I0
sI5
I1
sI6
I1
sI7
I0
sI8
I0
sI9
I0
sI10
I0
sI11
I0
sI12
I1
sI13
I0
sI14
I0
sI15
I1
sI16
I1
sI17
I0
sI18
I0
sI19
I0
sI20
I0
sI21
I1
sI22
I0
sI23
I1
sI24
I0
sI25
I1
sI26
I0
sI27
I0
sI28
I0
sI29
I1
sI30
I1
sI31
I0
sI32
I0
sI33
I1
sI34
I1
sI35
I0
sI36
I0
sI37
I0
sI38
I0
sI39
I0
sI40
I0
sI41
I0
sI42
I0
sI43
I1
sI44
I1
sI45
I1
sI46
I1
sI47
I0
sI48
I1
sI49
I0
sI50
I0
sI51
I0
sI52
I0
sI53
I1
sI54
I1
sI55
I1
sI56
I0
sI57
I0
sI58
I0
sI59
I0
sI60
I1
sI61
I1
sI62
I0
sI63
I0
sI64
I0
sI65
I0
sI66
I0
sI67
I1
sI68
I0
sI69
I1
sI70
I0
sI71
I0
sI72
I0
sI73
I0
sI74
I0
sI75
I0
sI76
I1
sI77
I1
sI78
I0
sI79
I1
sI80
I1
sI81
I1
sI82
I1
sI83
I0
sI84
I1
sI85
I0
sI86
I1
sI87
I0
sI88
I1
sI89
I1
sI90
I0
sI91
I0
sI92
I1
sI93
I1
sI94
I1
sI95
I1
sI96
I0
sI97
I0
sI98
I0
sI99
I1
sI100
I1
sI101
I0
sI102
I1
sI103
I0
sI104
I0
sI105
I1
sI106
I0
sI107
I0
sI108
I1
sI109
I1
sI110
I1
sI111
I1
sI112
I0
sI113
I0
sI114
I0
sI115
I0
sI116
I1
sI117
I0
sI118
I0
sI119
I1
sI120
I1
sI121
I0
sI122
I1
sI123
I0
sI124
I0
sI125
I0
sI126
I1
sI127
I0
sI128
I0
sI129
I1
sI130
I1
sI131
I0
sI132
I0
sI133
I0
sI134
I1
sI135
I1
sI136
I1
sI137
I1
sI138
I1
sI139
I1
sI140
I1
sI141
I0
sI142
I1
sI143
I0
sI144
I0
sI145
I0
sI146
I0
sI147
I0
sI148
I1
sI149
I0
sI150
I1
sI151
I1
sI152
I1
sI153
I1
sI154
I0
sI155
I0
sI156
I1
sI157
I1
sI158
I0
sI159
I1
sI160
I1
sI161
I1
sI162
I0
sI163
I0
sI164
I0
sI165
I0
sI166
I0
sI167
I0
sI168
I0
sI169
I0
sI170
I0
sI171
I1
sI172
I1
sI173
I0
sI174
I0
sI175
I1
sI176
I0
sI177
I1
sI178
I1
sI179
I0
sI180
I0
sI181
I0
sI182
I1
sI183
I0
sI184
I0
sI185
I0
sI186
I0
sI187
I1
sI188
I0
sI189
I1
sI190
I0
sI191
I1
sI192
I0
sI193
I1
sI194
I0
sI195
I0
sI196
I0
sI197
I1
sI198
I1
sI199
I0
sI200
I1
sI201
I0
sI202
I1
sI203
I0
sI204
I0
sI205
I0
sI206
I0
sI207
I0
sI208
I0
sI209
I1
sI210
I0
sI211
I0
sI212
I1
sI213
I1
sI214
I1
sI215
I0
sI216
I0
sI217
I0
sI218
I0
sI219
I0
sI220
I0
sI221
I1
sI222
I1
sI223
I1
sI224
I1
sI225
I1
sI226
I0
sI227
I0
sI228
I1
sI229
I1
sI230
I1
sI231
I0
sI232
I0
sI233
I0
sI234
I0
sI235
I0
sI236
I1
sI237
I1
sI238
I0
sI239
I1
sI240
I1
sI241
I0
sI242
I0
sI243
I0
sI244
I1
sI245
I1
sI246
I1
sI247
I1
sI248
I1
sI249
I1
sI250
I1
sI251
I0
sI252
I0
sI253
I1
sI254
I1
sI255
I1
ssI19
(dp23
I0
I1
sI1
I1
sI2
I1
sI3
I0
sI4
I1
sI5
I0
sI6
I1
sI7
I1
sI8
I1
sI9
I0
sI10
I0
sI11
I1
sI12
I1
sI13
I1
sI14
I1
sI15
I1
sI16
I1
sI17
I1
sI18
I1
sI19
I1
sI20
I1
sI21
I1
sI22
I1
sI23
I1
sI24
I1
sI25
I0
sI26
I0
sI27
I0
sI28
I0
sI29
I0
sI30
I1
sI31
I1
sI32
I1
sI33
I0
sI34
I1
sI35
I1
sI36
I1
sI37
I0
sI38
I1
sI39
I1
sI40
I1
sI41
I0
sI42
I0
sI43
I0
sI44
I0
sI45
I0
sI46
I1
sI47
I0
sI48
I1
sI49
I1
sI50
I0
sI51
I1
sI52
I1
sI53
I0
sI54
I1
sI55
I1
sI56
I1
sI57
I0
sI58
I0
sI59
I0
sI60
I1
sI61
I1
sI62
I1
sI63
I1
sI64
I1
sI65
I1
sI66
I0
sI67
I0
sI68
I1
sI69
I1
sI70
I1
sI71
I0
sI72
I0
sI73
I0
sI74
I0
sI75
I1
sI76
I1
sI77
I0
sI78
I0
sI79
I1
sI80
I0
sI81
I0
sI82
I1
sI83
I0
sI84
I1
sI85
I1
sI86
I1
sI87
I1
sI88
I0
sI89
I1
sI90
I0
sI91
I1
sI92
I0
sI93
I0
sI94
I0
sI95
I1
sI96
I1
sI97
I0
sI98
I1
sI99
I1
sI100
I1
sI101
I1
sI102
I0
sI103
I1
sI104
I0
sI105
I1
sI106
I1
sI107
I1
sI108
I0
sI109
I0
sI110
I1
sI111
I1
sI112
I1
sI113
I0
sI114
I1
sI115
I1
sI116
I1
sI117
I1
sI118
I1
sI119
I0
sI120
I0
sI121
I1
sI122
I1
sI123
I1
sI124
I1
sI125
I1
sI126
I1
sI127
I1
sI128
I1
sI129
I1
sI130
I1
sI131
I1
sI132
I0
sI133
I1
sI134
I0
sI135
I0
sI136
I0
sI137
I1
sI138
I1
sI139
I1
sI140
I0
sI141
I1
sI142
I1
sI143
I1
sI144
I0
sI145
I1
sI146
I1
sI147
I1
sI148
I1
sI149
I1
sI150
I0
sI151
I0
sI152
I1
sI153
I1
sI154
I1
sI155
I1
sI156
I1
sI157
I1
sI158
I1
sI159
I0
sI160
I1
sI161
I1
sI162
I0
sI163
I1
sI164
I1
sI165
I1
sI166
I0
sI167
I0
sI168
I0
sI169
I1
sI170
I1
sI171
I1
sI172
I1
sI173
I1
sI174
I1
sI175
I0
sI176
I0
sI177
I0
sI178
I1
sI179
I1
sI180
I1
sI181
I1
sI182
I0
sI183
I0
sI184
I0
sI185
I1
sI186
I1
sI187
I1
sI188
I1
sI189
I1
sI190
I1
sI191
I0
sI192
I1
sI193
I0
sI194
I0
sI195
I1
sI196
I1
sI197
I0
sI198
I0
sI199
I1
sI200
I1
sI201
I1
sI202
I1
sI203
I0
sI204
I1
sI205
I1
sI206
I1
sI207
I0
sI208
I0
sI209
I0
sI210
I0
sI211
I0
sI212
I0
sI213
I1
sI214
I1
sI215
I1
sI216
I1
sI217
I1
sI218
I1
sI219
I1
sI220
I1
sI221
I0
sI222
I1
sI223
I0
sI224
I0
sI225
I1
sI226
I1
sI227
I0
sI228
I0
sI229
I0
sI230
I1
sI231
I1
sI232
I0
sI233
I0
sI234
I0
sI235
I0
sI236
I1
sI237
I1
sI238
I1
sI239
I0
sI240
I1
sI241
I0
sI242
I1
sI243
I0
sI244
I0
sI245
I1
sI246
I0
sI247
I1
sI248
I1
sI249
I1
sI250
I1
sI251
I0
sI252
I1
sI253
I1
sI254
I0
sI255
I0
ssI20
(dp24
I0
I1
sI1
I1
sI2
I0
sI3
I1
sI4
I0
sI5
I1
sI6
I1
sI7
I1
sI8
I0
sI9
I1
sI10
I1
sI11
I1
sI12
I0
sI13
I1
sI14
I1
sI15
I1
sI16
I1
sI17
I0
sI18
I0
sI19
I1
sI20
I1
sI21
I0
sI22
I1
sI23
I1
sI24
I0
sI25
I1
sI26
I0
sI27
I0
sI28
I0
sI29
I0
sI30
I1
sI31
I1
sI32
I1
sI33
I1
sI34
I1
sI35
I1
sI36
I1
sI37
I0
sI38
I1
sI39
I0
sI40
I1
sI41
I0
sI42
I0
sI43
I0
sI44
I0
sI45
I1
sI46
I0
sI47
I1
sI48
I1
sI49
I1
sI50
I1
sI51
I1
sI52
I1
sI53
I1
sI54
I1
sI55
I1
sI56
I1
sI57
I0
sI58
I0
sI59
I0
sI60
I0
sI61
I1
sI62
I1
sI63
I0
sI64
I0
sI65
I1
sI66
I0
sI67
I0
sI68
I0
sI69
I0
sI70
I1
sI71
I1
sI72
I1
sI73
I1
sI74
I1
sI75
I1
sI76
I1
sI77
I1
sI78
I1
sI79
I1
sI80
I1
sI81
I1
sI82
I0
sI83
I1
sI84
I1
sI85
I0
sI86
I1
sI87
I0
sI88
I1
sI89
I0
sI90
I1
sI91
I0
sI92
I0
sI93
I1
sI94
I1
sI95
I1
sI96
I1
sI97
I0
sI98
I0
sI99
I0
sI100
I1
sI101
I1
sI102
I1
sI103
I1
sI104
I0
sI105
I0
sI106
I0
sI107
I0
sI108
I0
sI109
I1
sI110
I0
sI111
I1
sI112
I0
sI113
I0
sI114
I1
sI115
I1
sI116
I1
sI117
I1
sI118
I1
sI119
I1
sI120
I0
sI121
I0
sI122
I1
sI123
I1
sI124
I1
sI125
I1
sI126
I1
sI127
I1
sI128
I1
sI129
I0
sI130
I0
sI131
I0
sI132
I1
sI133
I1
sI134
I1
sI135
I0
sI136
I1
sI137
I0
sI138
I1
sI139
I1
sI140
I1
sI141
I1
sI142
I1
sI143
I1
sI144
I0
sI145
I0
sI146
I0
sI147
I1
sI148
I1
sI149
I1
sI150
I1
sI151
I0
sI152
I0
sI153
I0
sI154
I1
sI155
I1
sI156
I1
sI157
I1
sI158
I1
sI159
I1
sI160
I0
sI161
I0
sI162
I0
sI163
I1
sI164
I1
sI165
I0
sI166
I0
sI167
I0
sI168
I0
sI169
I1
sI170
I1
sI171
I0
sI172
I1
sI173
I0
sI174
I1
sI175
I1
sI176
I1
sI177
I1
sI178
I1
sI179
I1
sI180
I0
sI181
I0
sI182
I0
sI183
I0
sI184
I0
sI185
I0
sI186
I1
sI187
I0
sI188
I0
sI189
I1
sI190
I1
sI191
I1
sI192
I1
sI193
I1
sI194
I1
sI195
I1
sI196
I1
sI197
I0
sI198
I0
sI199
I1
sI200
I1
sI201
I1
sI202
I1
sI203
I1
sI204
I1
sI205
I1
sI206
I1
sI207
I1
sI208
I1
sI209
I1
sI210
I1
sI211
I1
sI212
I0
sI213
I0
sI214
I0
sI215
I1
sI216
I1
sI217
I1
sI218
I1
sI219
I1
sI220
I1
sI221
I1
sI222
I0
sI223
I1
sI224
I1
sI225
I1
sI226
I1
sI227
I1
sI228
I0
sI229
I0
sI230
I1
sI231
I1
sI232
I1
sI233
I1
sI234
I1
sI235
I1
sI236
I1
sI237
I0
sI238
I1
sI239
I1
sI240
I1
sI241
I1
sI242
I0
sI243
I1
sI244
I0
sI245
I1
sI246
I0
sI247
I1
sI248
I1
sI249
I1
sI250
I1
sI251
I1
sI252
I1
sI253
I1
sI254
I1
sI255
I1
ssI21
(dp25
I0
I1
sI1
I0
sI2
I0
sI3
I1
sI4
I3
sI5
I0
sI6
I0
sI7
I1
sI8
I0
sI9
I1
sI10
I0
sI11
I2
sI12
I0
sI13
I0
sI14
I0
sI15
I0
sI16
I0
sI17
I2
sI18
I2
sI19
I1
sI20
I1
sI21
I1
sI22
I0
sI23
I3
sI24
I1
sI25
I3
sI26
I1
sI27
I2
sI28
I0
sI29
I0
sI30
I0
sI31
I3
sI32
I0
sI33
I0
sI34
I0
sI35
I2
sI36
I0
sI37
I1
sI38
I1
sI39
I3
sI40
I2
sI41
I2
sI42
I2
sI43
I0
sI44
I1
sI45
I1
sI46
I3
sI47
I1
sI48
I0
sI49
I0
sI50
I2
sI51
I2
sI52
I3
sI53
I0
sI54
I3
sI55
I3
sI56
I2
sI57
I0
sI58
I2
sI59
I3
sI60
I3
sI61
I3
sI62
I1
sI63
I0
sI64
I0
sI65
I0
sI66
I2
sI67
I2
sI68
I2
sI69
I1
sI70
I1
sI71
I1
sI72
I2
sI73
I2
sI74
I1
sI75
I3
sI76
I3
sI77
I3
sI78
I1
sI79
I1
sI80
I0
sI81
I0
sI82
I2
sI83
I0
sI84
I3
sI85
I0
sI86
I0
sI87
I3
sI88
I3
sI89
I1
sI90
I1
sI91
I3
sI92
I1
sI93
I3
sI94
I1
sI95
I0
sI96
I1
sI97
I0
sI98
I0
sI99
I2
sI100
I2
sI101
I1
sI102
I1
sI103
I1
sI104
I1
sI105
I1
sI106
I3
sI107
I1
sI108
I3
sI109
I1
sI110
I0
sI111
I3
sI112
I1
sI113
I2
sI114
I2
sI115
I2
sI116
I0
sI117
I1
sI118
I3
sI119
I2
sI120
I0
sI121
I3
sI122
I3
sI123
I1
sI124
I1
sI125
I2
sI126
I2
sI127
I2
sI128
I1
sI129
I2
sI130
I2
sI131
I1
sI132
I1
sI133
I1
sI134
I1
sI135
I2
sI136
I2
sI137
I3
sI138
I3
sI139
I1
sI140
I1
sI141
I1
sI142
I1
sI143
I1
sI144
I2
sI145
I0
sI146
I2
sI147
I3
sI148
I1
sI149
I1
sI150
I2
sI151
I3
sI152
I3
sI153
I1
sI154
I3
sI155
I3
sI156
I2
sI157
I1
sI158
I1
sI159
I1
sI160
I1
sI161
I1
sI162
I3
sI163
I1
sI164
I1
sI165
I3
sI166
I3
sI167
I3
sI168
I3
sI169
I1
sI170
I2
sI171
I1
sI172
I2
sI173
I2
sI174
I2
sI175
I1
sI176
I2
sI177
I2
sI178
I2
sI179
I2
sI180
I1
sI181
I2
sI182
I1
sI183
I1
sI184
I1
sI185
I1
sI186
I1
sI187
I1
sI188
I3
sI189
I1
sI190
I1
sI191
I1
sI192
I3
sI193
I2
sI194
I2
sI195
I1
sI196
I2
sI197
I2
sI198
I2
sI199
I1
sI200
I1
sI201
I0
sI202
I1
sI203
I1
sI204
I1
sI205
I1
sI206
I1
sI207
I1
sI208
I2
sI209
I2
sI210
I2
sI211
I2
sI212
I2
sI213
I2
sI214
I2
sI215
I1
sI216
I1
sI217
I0
sI218
I3
sI219
I1
sI220
I1
sI221
I2
sI222
I0
sI223
I2
sI224
I2
sI225
I1
sI226
I1
sI227
I2
sI228
I2
sI229
I2
sI230
I2
sI231
I1
sI232
I1
sI233
I1
sI234
I1
sI235
I1
sI236
I2
sI237
I0
sI238
I2
sI239
I3
sI240
I1
sI241
I1
sI242
I0
sI243
I2
sI244
I2
sI245
I0
sI246
I2
sI247
I3
sI248
I2
sI249
I1
sI250
I3
sI251
I3
sI252
I0
sI253
I1
sI254
I1
sI255
I1
ssI22
(dp26
I0
I0
sI1
I1
sI2
I0
sI3
I0
sI4
I0
sI5
I0
sI6
I0
sI7
I0
sI8
I0
sI9
I0
sI10
I0
sI11
I0
sI12
I0
sI13
I1
sI14
I0
sI15
I0
sI16
I0
sI17
I0
sI18
I1
sI19
I0
sI20
I0
sI21
I0
sI22
I0
sI23
I1
sI24
I0
sI25
I0
sI26
I1
sI27
I1
sI28
I0
sI29
I1
sI30
I1
sI31
I0
sI32
I0
sI33
I0
sI34
I0
sI35
I1
sI36
I0
sI37
I0
sI38
I0
sI39
I0
sI40
I0
sI41
I0
sI42
I1
sI43
I1
sI44
I0
sI45
I0
sI46
I1
sI47
I0
sI48
I0
sI49
I0
sI50
I1
sI51
I1
sI52
I0
sI53
I0
sI54
I0
sI55
I0
sI56
I0
sI57
I0
sI58
I0
sI59
I0
sI60
I1
sI61
I0
sI62
I0
sI63
I0
sI64
I0
sI65
I1
sI66
I0
sI67
I1
sI68
I1
sI69
I0
sI70
I0
sI71
I0
sI72
I0
sI73
I0
sI74
I0
sI75
I0
sI76
I0
sI77
I0
sI78
I1
sI79
I0
sI80
I0
sI81
I0
sI82
I1
sI83
I1
sI84
I1
sI85
I0
sI86
I0
sI87
I0
sI88
I0
sI89
I0
sI90
I0
sI91
I0
sI92
I0
sI93
I0
sI94
I0
sI95
I0
sI96
I0
sI97
I0
sI98
I0
sI99
I0
sI100
I0
sI101
I0
sI102
I0
sI103
I0
sI104
I0
sI105
I0
sI106
I0
sI107
I0
sI108
I0
sI109
I0
sI110
I0
sI111
I1
sI112
I0
sI113
I0
sI114
I0
sI115
I0
sI116
I0
sI117
I0
sI118
I0
sI119
I0
sI120
I1
sI121
I0
sI122
I0
sI123
I0
sI124
I0
sI125
I0
sI126
I0
sI127
I0
sI128
I0
sI129
I0
sI130
I0
sI131
I0
sI132
I0
sI133
I0
sI134
I1
sI135
I1
sI136
I1
sI137
I0
sI138
I0
sI139
I0
sI140
I0
sI141
I0
sI142
I0
sI143
I0
sI144
I0
sI145
I0
sI146
I0
sI147
I0
sI148
I0
sI149
I0
sI150
I1
sI151
I1
sI152
I1
sI153
I0
sI154
I0
sI155
I0
sI156
I1
sI157
I0
sI158
I0
sI159
I0
sI160
I0
sI161
I0
sI162
I0
sI163
I0
sI164
I0
sI165
I0
sI166
I1
sI167
I1
sI168
I1
sI169
I0
sI170
I0
sI171
I0
sI172
I0
sI173
I0
sI174
I0
sI175
I0
sI176
I0
sI177
I1
sI178
I0
sI179
I0
sI180
I1
sI181
I0
sI182
I0
sI183
I1
sI184
I0
sI185
I0
sI186
I0
sI187
I0
sI188
I1
sI189
I0
sI190
I0
sI191
I0
sI192
I0
sI193
I0
sI194
I1
sI195
I1
sI196
I1
sI197
I1
sI198
I1
sI199
I0
sI200
I0
sI201
I0
sI202
I0
sI203
I0
sI204
I0
sI205
I0
sI206
I0
sI207
I0
sI208
I0
sI209
I1
sI210
I0
sI211
I1
sI212
I1
sI213
I1
sI214
I1
sI215
I0
sI216
I0
sI217
I0
sI218
I0
sI219
I0
sI220
I0
sI221
I0
sI222
I0
sI223
I0
sI224
I0
sI225
I0
sI226
I1
sI227
I1
sI228
I1
sI229
I1
sI230
I1
sI231
I0
sI232
I0
sI233
I0
sI234
I0
sI235
I0
sI236
I0
sI237
I0
sI238
I0
sI239
I0
sI240
I0
sI241
I0
sI242
I0
sI243
I1
sI244
I1
sI245
I0
sI246
I0
sI247
I0
sI248
I1
sI249
I0
sI250
I0
sI251
I0
sI252
I0
sI253
I0
sI254
I0
sI255
I0
ssI23
(dp27
I0
I2
sI1
I0
sI2
I0
sI3
I3
sI4
I2
sI5
I2
sI6
I0
sI7
I2
sI8
I1
sI9
I0
sI10
I2
sI11
I1
sI12
I2
sI13
I1
sI14
I1
sI15
I1
sI16
I0
sI17
I3
sI18
I1
sI19
I2
sI20
I0
sI21
I0
sI22
I0
sI23
I0
sI24
I1
sI25
I0
sI26
I3
sI27
I1
sI28
I1
sI29
I1
sI30
I1
sI31
I0
sI32
I1
sI33
I2
sI34
I1
sI35
I2
sI36
I0
sI37
I2
sI38
I1
sI39
I1
sI40
I2
sI41
I0
sI42
I0
sI43
I1
sI44
I3
sI45
I1
sI46
I1
sI47
I3
sI48
I2
sI49
I1
sI50
I2
sI51
I2
sI52
I3
sI53
I0
sI54
I2
sI55
I1
sI56
I1
sI57
I2
sI58
I0
sI59
I0
sI60
I0
sI61
I1
sI62
I3
sI63
I1
sI64
I3
sI65
I1
sI66
I2
sI67
I3
sI68
I0
sI69
I0
sI70
I3
sI71
I1
sI72
I2
sI73
I0
sI74
I1
sI75
I0
sI76
I0
sI77
I0
sI78
I1
sI79
I2
sI80
I2
sI81
I1
sI82
I1
sI83
I2
sI84
I1
sI85
I3
sI86
I0
sI87
I1
sI88
I1
sI89
I3
sI90
I0
sI91
I3
sI92
I0
sI93
I0
sI94
I0
sI95
I0
sI96
I0
sI97
I3
sI98
I2
sI99
I0
sI100
I2
sI101
I0
sI102
I0
sI103
I3
sI104
I3
sI105
I2
sI106
I3
sI107
I2
sI108
I2
sI109
I0
sI110
I0
sI111
I0
sI112
I3
sI113
I1
sI114
I2
sI115
I0
sI116
I3
sI117
I0
sI118
I1
sI119
I1
sI120
I0
sI121
I0
sI122
I1
sI123
I0
sI124
I0
sI125
I0
sI126
I2
sI127
I3
sI128
I0
sI129
I3
sI130
I1
sI131
I2
sI132
I2
sI133
I2
sI134
I0
sI135
I1
sI136
I1
sI137
I0
sI138
I1
sI139
I1
sI140
I0
sI141
I2
sI142
I2
sI143
I0
sI144
I2
sI145
I3
sI146
I2
sI147
I2
sI148
I2
sI149
I0
sI150
I2
sI151
I1
sI152
I1
sI153
I2
sI154
I2
sI155
I2
sI156
I0
sI157
I2
sI158
I0
sI159
I2
sI160
I0
sI161
I2
sI162
I3
sI163
I2
sI164
I0
sI165
I1
sI166
I1
sI167
I1
sI168
I1
sI169
I3
sI170
I0
sI171
I2
sI172
I0
sI173
I2
sI174
I1
sI175
I0
sI176
I2
sI177
I3
sI178
I3
sI179
I3
sI180
I2
sI181
I3
sI182
I1
sI183
I1
sI184
I0
sI185
I0
sI186
I3
sI187
I0
sI188
I2
sI189
I2
sI190
I2
sI191
I2
sI192
I0
sI193
I1
sI194
I3
sI195
I0
sI196
I2
sI197
I2
sI198
I1
sI199
I2
sI200
I2
sI201
I0
sI202
I1
sI203
I1
sI204
I0
sI205
I3
sI206
I3
sI207
I0
sI208
I3
sI209
I2
sI210
I3
sI211
I1
sI212
I2
sI213
I1
sI214
I1
sI215
I0
sI216
I3
sI217
I0
sI218
I2
sI219
I1
sI220
I1
sI221
I1
sI222
I1
sI223
I1
sI224
I3
sI225
I3
sI226
I0
sI227
I3
sI228
I1
sI229
I1
sI230
I3
sI231
I3
sI232
I3
sI233
I0
sI234
I3
sI235
I1
sI236
I1
sI237
I2
sI238
I2
sI239
I2
sI240
I0
sI241
I0
sI242
I3
sI243
I0
sI244
I2
sI245
I0
sI246
I3
sI247
I3
sI248
I0
sI249
I3
sI250
I1
sI251
I0
sI252
I3
sI253
I0
sI254
I3
sI255
I0
ssI24
(dp28
I0
I1
sI1
I0
sI2
I1
sI3
I1
sI4
I0
sI5
I1
sI6
I0
sI7
I1
sI8
I0
sI9
I0
sI10
I0
sI11
I1
sI12
I0
sI13
I1
sI14
I1
sI15
I1
sI16
I1
sI17
I0
sI18
I1
sI19
I1
sI20
I0
sI21
I1
sI22
I0
sI23
I0
sI24
I1
sI25
I1
sI26
I0
sI27
I0
sI28
I1
sI29
I1
sI30
I1
sI31
I1
sI32
I1
sI33
I0
sI34
I1
sI35
I1
sI36
I0
sI37
I1
sI38
I1
sI39
I0
sI40
I1
sI41
I1
sI42
I1
sI43
I0
sI44
I0
sI45
I0
sI46
I0
sI47
I1
sI48
I0
sI49
I1
sI50
I0
sI51
I1
sI52
I0
sI53
I1
sI54
I0
sI55
I1
sI56
I0
sI57
I0
sI58
I1
sI59
I1
sI60
I1
sI61
I0
sI62
I1
sI63
I1
sI64
I1
sI65
I1
sI66
I0
sI67
I1
sI68
I0
sI69
I1
sI70
I0
sI71
I1
sI72
I0
sI73
I0
sI74
I1
sI75
I1
sI76
I1
sI77
I1
sI78
I1
sI79
I1
sI80
I1
sI81
I1
sI82
I1
sI83
I0
sI84
I1
sI85
I1
sI86
I0
sI87
I1
sI88
I0
sI89
I0
sI90
I1
sI91
I0
sI92
I0
sI93
I1
sI94
I1
sI95
I1
sI96
I1
sI97
I1
sI98
I1
sI99
I1
sI100
I0
sI101
I1
sI102
I0
sI103
I1
sI104
I0
sI105
I1
sI106
I0
sI107
I1
sI108
I0
sI109
I1
sI110
I1
sI111
I1
sI112
I1
sI113
I0
sI114
I1
sI115
I1
sI116
I0
sI117
I1
sI118
I0
sI119
I0
sI120
I1
sI121
I0
sI122
I1
sI123
I1
sI124
I0
sI125
I0
sI126
I1
sI127
I1
sI128
I0
sI129
I0
sI130
I1
sI131
I1
sI132
I0
sI133
I1
sI134
I1
sI135
I0
sI136
I0
sI137
I1
sI138
I0
sI139
I0
sI140
I0
sI141
I1
sI142
I1
sI143
I1
sI144
I1
sI145
I1
sI146
I1
sI147
I0
sI148
I1
sI149
I1
sI150
I1
sI151
I0
sI152
I0
sI153
I1
sI154
I1
sI155
I0
sI156
I1
sI157
I0
sI158
I1
sI159
I1
sI160
I1
sI161
I1
sI162
I0
sI163
I0
sI164
I0
sI165
I1
sI166
I0
sI167
I0
sI168
I0
sI169
I0
sI170
I1
sI171
I0
sI172
I0
sI173
I0
sI174
I1
sI175
I0
sI176
I1
sI177
I0
sI178
I0
sI179
I0
sI180
I1
sI181
I0
sI182
I0
sI183
I0
sI184
I0
sI185
I1
sI186
I0
sI187
I0
sI188
I0
sI189
I0
sI190
I0
sI191
I0
sI192
I1
sI193
I1
sI194
I0
sI195
I1
sI196
I0
sI197
I0
sI198
I0
sI199
I1
sI200
I0
sI201
I0
sI202
I0
sI203
I0
sI204
I0
sI205
I0
sI206
I0
sI207
I0
sI208
I0
sI209
I0
sI210
I1
sI211
I0
sI212
I0
sI213
I0
sI214
I0
sI215
I0
sI216
I0
sI217
I0
sI218
I0
sI219
I0
sI220
I0
sI221
I0
sI222
I0
sI223
I1
sI224
I1
sI225
I0
sI226
I1
sI227
I0
sI228
I0
sI229
I0
sI230
I1
sI231
I0
sI232
I0
sI233
I1
sI234
I0
sI235
I0
sI236
I0
sI237
I0
sI238
I0
sI239
I1
sI240
I0
sI241
I0
sI242
I1
sI243
I1
sI244
I1
sI245
I1
sI246
I1
sI247
I1
sI248
I0
sI249
I1
sI250
I1
sI251
I1
sI252
I1
sI253
I0
sI254
I1
sI255
I1
ssI25
(dp29
I0
I0
sI1
I0
sI2
I0
sI3
I1
sI4
I0
sI5
I1
sI6
I1
sI7
I0
sI8
I0
sI9
I1
sI10
I0
sI11
I0
sI12
I0
sI13
I1
sI14
I1
sI15
I1
sI16
I1
sI17
I0
sI18
I1
sI19
I1
sI20
I1
sI21
I0
sI22
I1
sI23
I1
sI24
I1
sI25
I1
sI26
I0
sI27
I0
sI28
I1
sI29
I1
sI30
I0
sI31
I0
sI32
I0
sI33
I1
sI34
I1
sI35
I1
sI36
I1
sI37
I0
sI38
I0
sI39
I1
sI40
I1
sI41
I0
sI42
I0
sI43
I0
sI44
I0
sI45
I1
sI46
I0
sI47
I0
sI48
I1
sI49
I1
sI50
I1
sI51
I1
sI52
I1
sI53
I1
sI54
I1
sI55
I0
sI56
I0
sI57
I1
sI58
I1
sI59
I1
sI60
I1
sI61
I1
sI62
I1
sI63
I1
sI64
I1
sI65
I1
sI66
I1
sI67
I1
sI68
I1
sI69
I0
sI70
I1
sI71
I1
sI72
I1
sI73
I0
sI74
I0
sI75
I0
sI76
I1
sI77
I1
sI78
I0
sI79
I1
sI80
I0
sI81
I0
sI82
I0
sI83
I1
sI84
I1
sI85
I1
sI86
I1
sI87
I0
sI88
I0
sI89
I1
sI90
I0
sI91
I0
sI92
I0
sI93
I0
sI94
I1
sI95
I0
sI96
I1
sI97
I0
sI98
I0
sI99
I1
sI100
I1
sI101
I1
sI102
I0
sI103
I0
sI104
I0
sI105
I0
sI106
I0
sI107
I0
sI108
I0
sI109
I1
sI110
I0
sI111
I1
sI112
I0
sI113
I1
sI114
I0
sI115
I0
sI116
I1
sI117
I0
sI118
I0
sI119
I0
sI120
I0
sI121
I0
sI122
I0
sI123
I0
sI124
I0
sI125
I0
sI126
I0
sI127
I1
sI128
I0
sI129
I0
sI130
I0
sI131
I1
sI132
I1
sI133
I0
sI134
I0
sI135
I0
sI136
I0
sI137
I1
sI138
I0
sI139
I0
sI140
I0
sI141
I1
sI142
I0
sI143
I0
sI144
I0
sI145
I0
sI146
I1
sI147
I1
sI148
I0
sI149
I0
sI150
I0
sI151
I0
sI152
I0
sI153
I0
sI154
I1
sI155
I0
sI156
I0
sI157
I0
sI158
I1
sI159
I0
sI160
I0
sI161
I1
sI162
I1
sI163
I0
sI164
I1
sI165
I1
sI166
I1
sI167
I0
sI168
I0
sI169
I0
sI170
I0
sI171
I0
sI172
I1
sI173
I1
sI174
I1
sI175
I1
sI176
I1
sI177
I1
sI178
I0
sI179
I1
sI180
I0
sI181
I0
sI182
I0
sI183
I0
sI184
I0
sI185
I0
sI186
I0
sI187
I0
sI188
I1
sI189
I1
sI190
I0
sI191
I0
sI192
I0
sI193
I1
sI194
I1
sI195
I0
sI196
I0
sI197
I0
sI198
I1
sI199
I0
sI200
I0
sI201
I1
sI202
I0
sI203
I1
sI204
I1
sI205
I1
sI206
I1
sI207
I1
sI208
I1
sI209
I1
sI210
I1
sI211
I0
sI212
I0
sI213
I0
sI214
I0
sI215
I0
sI216
I0
sI217
I0
sI218
I0
sI219
I0
sI220
I1
sI221
I1
sI222
I0
sI223
I0
sI224
I0
sI225
I1
sI226
I1
sI227
I0
sI228
I0
sI229
I0
sI230
I0
sI231
I0
sI232
I0
sI233
I0
sI234
I0
sI235
I0
sI236
I0
sI237
I1
sI238
I0
sI239
I0
sI240
I0
sI241
I0
sI242
I0
sI243
I1
sI244
I1
sI245
I0
sI246
I0
sI247
I0
sI248
I0
sI249
I0
sI250
I0
sI251
I0
sI252
I0
sI253
I0
sI254
I0
sI255
I0
ssI26
(dp30
I0
I1
sI1
I0
sI2
I0
sI3
I0
sI4
I0
sI5
I0
sI6
I1
sI7
I1
sI8
I0
sI9
I0
sI10
I0
sI11
I0
sI12
I0
sI13
I0
sI14
I0
sI15
I0
sI16
I0
sI17
I0
sI18
I0
sI19
I0
sI20
I0
sI21
I1
sI22
I0
sI23
I0
sI24
I0
sI25
I0
sI26
I1
sI27
I1
sI28
I1
sI29
I0
sI30
I0
sI31
I0
sI32
I0
sI33
I0
sI34
I0
sI35
I0
sI36
I0
sI37
I0
sI38
I0
sI39
I0
sI40
I1
sI41
I1
sI42
I1
sI43
I1
sI44
I0
sI45
I1
sI46
I0
sI47
I0
sI48
I1
sI49
I1
sI50
I1
sI51
I1
sI52
I1
sI53
I0
sI54
I0
sI55
I0
sI56
I0
sI57
I0
sI58
I0
sI59
I0
sI60
I0
sI61
I1
sI62
I1
sI63
I0
sI64
I0
sI65
I0
sI66
I1
sI67
I1
sI68
I1
sI69
I0
sI70
I0
sI71
I0
sI72
I0
sI73
I0
sI74
I0
sI75
I0
sI76
I0
sI77
I0
sI78
I0
sI79
I0
sI80
I1
sI81
I1
sI82
I1
sI83
I1
sI84
I0
sI85
I0
sI86
I0
sI87
I1
sI88
I0
sI89
I0
sI90
I0
sI91
I0
sI92
I0
sI93
I1
sI94
I0
sI95
I1
sI96
I0
sI97
I0
sI98
I1
sI99
I0
sI100
I1
sI101
I0
sI102
I1
sI103
I0
sI104
I1
sI105
I1
sI106
I0
sI107
I0
sI108
I0
sI109
I0
sI110
I1
sI111
I1
sI112
I0
sI113
I0
sI114
I0
sI115
I0
sI116
I1
sI117
I0
sI118
I0
sI119
I1
sI120
I1
sI121
I1
sI122
I0
sI123
I0
sI124
I1
sI125
I0
sI126
I0
sI127
I0
sI128
I0
sI129
I0
sI130
I1
sI131
I1
sI132
I0
sI133
I1
sI134
I1
sI135
I1
sI136
I0
sI137
I0
sI138
I1
sI139
I1
sI140
I1
sI141
I0
sI142
I1
sI143
I0
sI144
I0
sI145
I0
sI146
I1
sI147
I1
sI148
I0
sI149
I0
sI150
I0
sI151
I1
sI152
I1
sI153
I1
sI154
I0
sI155
I0
sI156
I0
sI157
I0
sI158
I0
sI159
I0
sI160
I0
sI161
I0
sI162
I0
sI163
I0
sI164
I0
sI165
I0
sI166
I0
sI167
I1
sI168
I0
sI169
I1
sI170
I0
sI171
I0
sI172
I0
sI173
I0
sI174
I0
sI175
I1
sI176
I0
sI177
I1
sI178
I1
sI179
I0
sI180
I0
sI181
I0
sI182
I1
sI183
I1
sI184
I1
sI185
I1
sI186
I1
sI187
I1
sI188
I1
sI189
I1
sI190
I1
sI191
I0
sI192
I0
sI193
I0
sI194
I1
sI195
I1
sI196
I0
sI197
I0
sI198
I0
sI199
I0
sI200
I0
sI201
I1
sI202
I0
sI203
I1
sI204
I1
sI205
I1
sI206
I1
sI207
I1
sI208
I0
sI209
I1
sI210
I0
sI211
I1
sI212
I0
sI213
I0
sI214
I1
sI215
I1
sI216
I1
sI217
I0
sI218
I0
sI219
I1
sI220
I1
sI221
I1
sI222
I1
sI223
I0
sI224
I0
sI225
I1
sI226
I0
sI227
I1
sI228
I1
sI229
I0
sI230
I1
sI231
I1
sI232
I1
sI233
I0
sI234
I1
sI235
I1
sI236
I1
sI237
I0
sI238
I0
sI239
I0
sI240
I0
sI241
I0
sI242
I0
sI243
I1
sI244
I0
sI245
I0
sI246
I1
sI247
I0
sI248
I0
sI249
I1
sI250
I0
sI251
I1
sI252
I1
sI253
I0
sI254
I1
sI255
I0
ssI27
(dp31
I0
I2
sI1
I2
sI2
I2
sI3
I2
sI4
I1
sI5
I0
sI6
I1
sI7
I1
sI8
I2
sI9
I2
sI10
I0
sI11
I2
sI12
I1
sI13
I1
sI14
I2
sI15
I1
sI16
I2
sI17
I1
sI18
I1
sI19
I1
sI20
I1
sI21
I2
sI22
I1
sI23
I1
sI24
I0
sI25
I0
sI26
I2
sI27
I2
sI28
I1
sI29
I2
sI30
I2
sI31
I2
sI32
I0
sI33
I0
sI34
I0
sI35
I1
sI36
I2
sI37
I2
sI38
I2
sI39
I1
sI40
I0
sI41
I0
sI42
I0
sI43
I0
sI44
I1
sI45
I2
sI46
I2
sI47
I2
sI48
I1
sI49
I0
sI50
I0
sI51
I1
sI52
I1
sI53
I2
sI54
I1
sI55
I0
sI56
I2
sI57
I1
sI58
I0
sI59
I1
sI60
I2
sI61
I1
sI62
I0
sI63
I1
sI64
I0
sI65
I0
sI66
I0
sI67
I0
sI68
I1
sI69
I1
sI70
I2
sI71
I2
sI72
I1
sI73
I2
sI74
I1
sI75
I2
sI76
I1
sI77
I1
sI78
I2
sI79
I2
sI80
I1
sI81
I0
sI82
I0
sI83
I0
sI84
I1
sI85
I1
sI86
I2
sI87
I2
sI88
I2
sI89
I1
sI90
I0
sI91
I1
sI92
I2
sI93
I1
sI94
I2
sI95
I2
sI96
I1
sI97
I0
sI98
I0
sI99
I0
sI100
I2
sI101
I1
sI102
I2
sI103
I1
sI104
I1
sI105
I1
sI106
I2
sI107
I2
sI108
I1
sI109
I2
sI110
I0
sI111
I2
sI112
I2
sI113
I2
sI114
I0
sI115
I2
sI116
I1
sI117
I2
sI118
I2
sI119
I2
sI120
I2
sI121
I1
sI122
I1
sI123
I2
sI124
I0
sI125
I2
sI126
I2
sI127
I2
sI128
I1
sI129
I2
sI130
I1
sI131
I1
sI132
I1
sI133
I1
sI134
I1
sI135
I1
sI136
I1
sI137
I1
sI138
I1
sI139
I2
sI140
I1
sI141
I1
sI142
I1
sI143
I1
sI144
I1
sI145
I1
sI146
I1
sI147
I1
sI148
I1
sI149
I2
sI150
I2
sI151
I2
sI152
I1
sI153
I1
sI154
I1
sI155
I2
sI156
I1
sI157
I1
sI158
I2
sI159
I1
sI160
I1
sI161
I1
sI162
I1
sI163
I1
sI164
I1
sI165
I1
sI166
I1
sI167
I2
sI168
I0
sI169
I1
sI170
I1
sI171
I1
sI172
I1
sI173
I1
sI174
I1
sI175
I2
sI176
I1
sI177
I1
sI178
I1
sI179
I2
sI180
I0
sI181
I0
sI182
I2
sI183
I2
sI184
I1
sI185
I1
sI186
I1
sI187
I1
sI188
I1
sI189
I2
sI190
I1
sI191
I1
sI192
I1
sI193
I1
sI194
I2
sI195
I1
sI196
I0
sI197
I0
sI198
I2
sI199
I1
sI200
I1
sI201
I1
sI202
I1
sI203
I1
sI204
I1
sI205
I2
sI206
I1
sI207
I0
sI208
I1
sI209
I2
sI210
I0
sI211
I0
sI212
I0
sI213
I2
sI214
I2
sI215
I0
sI216
I1
sI217
I1
sI218
I1
sI219
I1
sI220
I1
sI221
I1
sI222
I1
sI223
I1
sI224
I1
sI225
I2
sI226
I0
sI227
I0
sI228
I0
sI229
I0
sI230
I2
sI231
I1
sI232
I1
sI233
I1
sI234
I0
sI235
I2
sI236
I1
sI237
I1
sI238
I1
sI239
I1
sI240
I1
sI241
I1
sI242
I0
sI243
I0
sI244
I0
sI245
I1
sI246
I1
sI247
I1
sI248
I1
sI249
I1
sI250
I0
sI251
I1
sI252
I1
sI253
I1
sI254
I1
sI255
I1
ssI28
(dp32
I0
I3
sI1
I0
sI2
I2
sI3
I1
sI4
I2
sI5
I2
sI6
I3
sI7
I3
sI8
I3
sI9
I2
sI10
I1
sI11
I0
sI12
I1
sI13
I3
sI14
I2
sI15
I0
sI16
I2
sI17
I3
sI18
I2
sI19
I3
sI20
I3
sI21
I1
sI22
I2
sI23
I1
sI24
I2
sI25
I2
sI26
I1
sI27
I2
sI28
I3
sI29
I0
sI30
I1
sI31
I2
sI32
I1
sI33
I1
sI34
I3
sI35
I1
sI36
I2
sI37
I1
sI38
I1
sI39
I0
sI40
I2
sI41
I2
sI42
I0
sI43
I3
sI44
I0
sI45
I0
sI46
I0
sI47
I1
sI48
I3
sI49
I2
sI50
I1
sI51
I3
sI52
I3
sI53
I2
sI54
I2
sI55
I3
sI56
I1
sI57
I3
sI58
I2
sI59
I2
sI60
I2
sI61
I2
sI62
I0
sI63
I3
sI64
I2
sI65
I1
sI66
I1
sI67
I1
sI68
I2
sI69
I2
sI70
I2
sI71
I3
sI72
I2
sI73
I1
sI74
I3
sI75
I0
sI76
I0
sI77
I2
sI78
I1
sI79
I2
sI80
I3
sI81
I0
sI82
I3
sI83
I3
sI84
I2
sI85
I2
sI86
I1
sI87
I0
sI88
I0
sI89
I3
sI90
I2
sI91
I0
sI92
I2
sI93
I0
sI94
I2
sI95
I3
sI96
I2
sI97
I0
sI98
I1
sI99
I3
sI100
I2
sI101
I2
sI102
I2
sI103
I2
sI104
I0
sI105
I3
sI106
I3
sI107
I3
sI108
I3
sI109
I2
sI110
I1
sI111
I3
sI112
I0
sI113
I2
sI114
I2
sI115
I2
sI116
I3
sI117
I0
sI118
I3
sI119
I0
sI120
I1
sI121
I0
sI122
I1
sI123
I2
sI124
I3
sI125
I1
sI126
I2
sI127
I1
sI128
I2
sI129
I3
sI130
I3
sI131
I1
sI132
I1
sI133
I2
sI134
I0
sI135
I1
sI136
I0
sI137
I0
sI138
I1
sI139
I0
sI140
I2
sI141
I2
sI142
I2
sI143
I2
sI144
I2
sI145
I0
sI146
I2
sI147
I1
sI148
I1
sI149
I3
sI150
I2
sI151
I0
sI152
I0
sI153
I2
sI154
I0
sI155
I2
sI156
I3
sI157
I1
sI158
I2
sI159
I3
sI160
I3
sI161
I2
sI162
I3
sI163
I2
sI164
I1
sI165
I1
sI166
I0
sI167
I3
sI168
I0
sI169
I0
sI170
I3
sI171
I1
sI172
I0
sI173
I2
sI174
I3
sI175
I2
sI176
I2
sI177
I1
sI178
I1
sI179
I1
sI180
I1
sI181
I1
sI182
I2
sI183
I3
sI184
I0
sI185
I1
sI186
I0
sI187
I1
sI188
I0
sI189
I0
sI190
I1
sI191
I2
sI192
I2
sI193
I3
sI194
I2
sI195
I0
sI196
I0
sI197
I3
sI198
I3
sI199
I3
sI200
I0
sI201
I0
sI202
I0
sI203
I2
sI204
I0
sI205
I3
sI206
I3
sI207
I3
sI208
I2
sI209
I2
sI210
I0
sI211
I3
sI212
I3
sI213
I1
sI214
I3
sI215
I0
sI216
I2
sI217
I3
sI218
I3
sI219
I1
sI220
I1
sI221
I0
sI222
I1
sI223
I0
sI224
I3
sI225
I2
sI226
I0
sI227
I0
sI228
I0
sI229
I3
sI230
I1
sI231
I2
sI232
I3
sI233
I2
sI234
I3
sI235
I1
sI236
I2
sI237
I0
sI238
I3
sI239
I1
sI240
I0
sI241
I0
sI242
I0
sI243
I0
sI244
I0
sI245
I0
sI246
I3
sI247
I2
sI248
I0
sI249
I3
sI250
I2
sI251
I3
sI252
I2
sI253
I3
sI254
I2
sI255
I2
ssI29
(dp33
I0
I0
sI1
I0
sI2
I0
sI3
I1
sI4
I0
sI5
I0
sI6
I1
sI7
I0
sI8
I0
sI9
I1
sI10
I0
sI11
I0
sI12
I1
sI13
I0
sI14
I0
sI15
I0
sI16
I0
sI17
I0
sI18
I0
sI19
I1
sI20
I0
sI21
I1
sI22
I1
sI23
I0
sI24
I1
sI25
I1
sI26
I0
sI27
I0
sI28
I0
sI29
I0
sI30
I0
sI31
I0
sI32
I0
sI33
I0
sI34
I0
sI35
I1
sI36
I1
sI37
I1
sI38
I0
sI39
I0
sI40
I0
sI41
I0
sI42
I0
sI43
I0
sI44
I0
sI45
I0
sI46
I0
sI47
I1
sI48
I1
sI49
I0
sI50
I1
sI51
I1
sI52
I0
sI53
I1
sI54
I0
sI55
I1
sI56
I1
sI57
I1
sI58
I0
sI59
I0
sI60
I0
sI61
I0
sI62
I0
sI63
I0
sI64
I0
sI65
I0
sI66
I0
sI67
I1
sI68
I1
sI69
I1
sI70
I1
sI71
I0
sI72
I0
sI73
I1
sI74
I1
sI75
I0
sI76
I0
sI77
I0
sI78
I0
sI79
I1
sI80
I1
sI81
I0
sI82
I0
sI83
I1
sI84
I0
sI85
I1
sI86
I0
sI87
I1
sI88
I0
sI89
I1
sI90
I0
sI91
I1
sI92
I0
sI93
I0
sI94
I0
sI95
I0
sI96
I0
sI97
I0
sI98
I1
sI99
I0
sI100
I0
sI101
I0
sI102
I0
sI103
I1
sI104
I1
sI105
I0
sI106
I0
sI107
I0
sI108
I0
sI109
I0
sI110
I1
sI111
I0
sI112
I0
sI113
I1
sI114
I1
sI115
I1
sI116
I0
sI117
I0
sI118
I1
sI119
I1
sI120
I1
sI121
I1
sI122
I0
sI123
I0
sI124
I0
sI125
I0
sI126
I1
sI127
I0
sI128
I0
sI129
I0
sI130
I1
sI131
I1
sI132
I1
sI133
I0
sI134
I0
sI135
I0
sI136
I0
sI137
I0
sI138
I1
sI139
I0
sI140
I1
sI141
I1
sI142
I0
sI143
I0
sI144
I0
sI145
I1
sI146
I1
sI147
I1
sI148
I1
sI149
I0
sI150
I1
sI151
I1
sI152
I1
sI153
I1
sI154
I0
sI155
I0
sI156
I1
sI157
I1
sI158
I1
sI159
I0
sI160
I1
sI161
I0
sI162
I1
sI163
I0
sI164
I1
sI165
I0
sI166
I1
sI167
I1
sI168
I1
sI169
I1
sI170
I0
sI171
I0
sI172
I0
sI173
I1
sI174
I0
sI175
I1
sI176
I1
sI177
I0
sI178
I1
sI179
I1
sI180
I0
sI181
I0
sI182
I1
sI183
I1
sI184
I0
sI185
I0
sI186
I0
sI187
I0
sI188
I1
sI189
I0
sI190
I0
sI191
I1
sI192
I0
sI193
I0
sI194
I1
sI195
I0
sI196
I0
sI197
I1
sI198
I1
sI199
I0
sI200
I1
sI201
I0
sI202
I0
sI203
I0
sI204
I0
sI205
I1
sI206
I1
sI207
I1
sI208
I0
sI209
I1
sI210
I1
sI211
I0
sI212
I1
sI213
I1
sI214
I1
sI215
I0
sI216
I1
sI217
I0
sI218
I0
sI219
I1
sI220
I0
sI221
I1
sI222
I1
sI223
I1
sI224
I1
sI225
I1
sI226
I1
sI227
I1
sI228
I1
sI229
I1
sI230
I0
sI231
I0
sI232
I0
sI233
I0
sI234
I1
sI235
I0
sI236
I1
sI237
I0
sI238
I0
sI239
I1
sI240
I0
sI241
I1
sI242
I0
sI243
I0
sI244
I1
sI245
I1
sI246
I0
sI247
I1
sI248
I0
sI249
I1
sI250
I0
sI251
I1
sI252
I1
sI253
I0
sI254
I0
sI255
I0
ssI30
(dp34
I0
I1
sI1
I1
sI2
I1
sI3
I1
sI4
I0
sI5
I1
sI6
I1
sI7
I1
sI8
I1
sI9
I1
sI10
I0
sI11
I1
sI12
I1
sI13
I0
sI14
I0
sI15
I1
sI16
I0
sI17
I0
sI18
I1
sI19
I0
sI20
I1
sI21
I1
sI22
I1
sI23
I0
sI24
I1
sI25
I1
sI26
I1
sI27
I0
sI28
I1
sI29
I1
sI30
I1
sI31
I1
sI32
I0
sI33
I1
sI34
I0
sI35
I1
sI36
I1
sI37
I1
sI38
I0
sI39
I0
sI40
I1
sI41
I1
sI42
I0
sI43
I0
sI44
I0
sI45
I0
sI46
I0
sI47
I1
sI48
I1
sI49
I1
sI50
I1
sI51
I1
sI52
I1
sI53
I0
sI54
I1
sI55
I1
sI56
I1
sI57
I0
sI58
I0
sI59
I1
sI60
I1
sI61
I0
sI62
I1
sI63
I1
sI64
I0
sI65
I0
sI66
I0
sI67
I0
sI68
I0
sI69
I1
sI70
I0
sI71
I1
sI72
I1
sI73
I0
sI74
I1
sI75
I0
sI76
I1
sI77
I0
sI78
I0
sI79
I0
sI80
I1
sI81
I0
sI82
I0
sI83
I0
sI84
I1
sI85
I1
sI86
I1
sI87
I1
sI88
I0
sI89
I0
sI90
I0
sI91
I0
sI92
I1
sI93
I0
sI94
I1
sI95
I1
sI96
I1
sI97
I1
sI98
I1
sI99
I0
sI100
I1
sI101
I0
sI102
I1
sI103
I1
sI104
I1
sI105
I1
sI106
I0
sI107
I0
sI108
I0
sI109
I1
sI110
I1
sI111
I1
sI112
I0
sI113
I0
sI114
I1
sI115
I1
sI116
I1
sI117
I0
sI118
I1
sI119
I1
sI120
I1
sI121
I1
sI122
I1
sI123
I1
sI124
I0
sI125
I1
sI126
I1
sI127
I1
sI128
I0
sI129
I0
sI130
I1
sI131
I0
sI132
I1
sI133
I1
sI134
I0
sI135
I0
sI136
I1
sI137
I1
sI138
I0
sI139
I0
sI140
I1
sI141
I0
sI142
I1
sI143
I1
sI144
I0
sI145
I1
sI146
I1
sI147
I1
sI148
I1
sI149
I1
sI150
I0
sI151
I0
sI152
I0
sI153
I1
sI154
I1
sI155
I0
sI156
I1
sI157
I0
sI158
I1
sI159
I1
sI160
I0
sI161
I1
sI162
I1
sI163
I0
sI164
I1
sI165
I0
sI166
I0
sI167
I0
sI168
I0
sI169
I0
sI170
I0
sI171
I0
sI172
I0
sI173
I1
sI174
I1
sI175
I1
sI176
I0
sI177
I0
sI178
I1
sI179
I1
sI180
I1
sI181
I1
sI182
I0
sI183
I0
sI184
I0
sI185
I0
sI186
I0
sI187
I0
sI188
I0
sI189
I0
sI190
I0
sI191
I0
sI192
I0
sI193
I0
sI194
I0
sI195
I1
sI196
I1
sI197
I1
sI198
I0
sI199
I0
sI200
I0
sI201
I1
sI202
I1
sI203
I0
sI204
I0
sI205
I0
sI206
I1
sI207
I1
sI208
I1
sI209
I1
sI210
I1
sI211
I1
sI212
I1
sI213
I1
sI214
I1
sI215
I1
sI216
I0
sI217
I0
sI218
I0
sI219
I0
sI220
I0
sI221
I1
sI222
I1
sI223
I1
sI224
I0
sI225
I0
sI226
I0
sI227
I0
sI228
I0
sI229
I0
sI230
I1
sI231
I0
sI232
I1
sI233
I0
sI234
I1
sI235
I1
sI236
I0
sI237
I0
sI238
I0
sI239
I1
sI240
I0
sI241
I1
sI242
I0
sI243
I0
sI244
I0
sI245
I0
sI246
I1
sI247
I0
sI248
I0
sI249
I0
sI250
I1
sI251
I1
sI252
I0
sI253
I0
sI254
I0
sI255
I1
ssI31
(dp35
I0
I1
sI1
I0
sI2
I0
sI3
I0
sI4
I0
sI5
I1
sI6
I0
sI7
I0
sI8
I0
sI9
I0
sI10
I1
sI11
I0
sI12
I0
sI13
I0
sI14
I0
sI15
I1
sI16
I0
sI17
I1
sI18
I0
sI19
I1
sI20
I1
sI21
I1
sI22
I0
sI23
I0
sI24
I0
sI25
I0
sI26
I1
sI27
I1
sI28
I0
sI29
I1
sI30
I0
sI31
I1
sI32
I0
sI33
I0
sI34
I1
sI35
I0
sI36
I0
sI37
I1
sI38
I0
sI39
I0
sI40
I0
sI41
I0
sI42
I0
sI43
I0
sI44
I0
sI45
I0
sI46
I0
sI47
I1
sI48
I0
sI49
I0
sI50
I0
sI51
I1
sI52
I0
sI53
I0
sI54
I1
sI55
I0
sI56
I0
sI57
I1
sI58
I1
sI59
I0
sI60
I0
sI61
I0
sI62
I0
sI63
I0
sI64
I0
sI65
I1
sI66
I1
sI67
I0
sI68
I0
sI69
I0
sI70
I0
sI71
I0
sI72
I0
sI73
I1
sI74
I0
sI75
I1
sI76
I1
sI77
I1
sI78
I0
sI79
I0
sI80
I1
sI81
I1
sI82
I0
sI83
I0
sI84
I0
sI85
I0
sI86
I0
sI87
I0
sI88
I1
sI89
I0
sI90
I1
sI91
I0
sI92
I1
sI93
I0
sI94
I1
sI95
I1
sI96
I1
sI97
I1
sI98
I1
sI99
I0
sI100
I0
sI101
I0
sI102
I0
sI103
I1
sI104
I1
sI105
I0
sI106
I1
sI107
I0
sI108
I1
sI109
I1
sI110
I1
sI111
I1
sI112
I0
sI113
I0
sI114
I0
sI115
I1
sI116
I1
sI117
I0
sI118
I1
sI119
I1
sI120
I1
sI121
I0
sI122
I1
sI123
I0
sI124
I1
sI125
I1
sI126
I1
sI127
I1
sI128
I0
sI129
I0
sI130
I0
sI131
I1
sI132
I0
sI133
I0
sI134
I1
sI135
I1
sI136
I1
sI137
I1
sI138
I1
sI139
I0
sI140
I1
sI141
I1
sI142
I1
sI143
I1
sI144
I1
sI145
I0
sI146
I0
sI147
I0
sI148
I1
sI149
I0
sI150
I1
sI151
I0
sI152
I0
sI153
I0
sI154
I1
sI155
I1
sI156
I1
sI157
I0
sI158
I1
sI159
I0
sI160
I1
sI161
I1
sI162
I0
sI163
I1
sI164
I1
sI165
I0
sI166
I0
sI167
I0
sI168
I1
sI169
I1
sI170
I1
sI171
I1
sI172
I1
sI173
I1
sI174
I0
sI175
I1
sI176
I1
sI177
I0
sI178
I1
sI179
I1
sI180
I1
sI181
I0
sI182
I1
sI183
I0
sI184
I0
sI185
I0
sI186
I1
sI187
I1
sI188
I1
sI189
I1
sI190
I0
sI191
I1
sI192
I1
sI193
I1
sI194
I0
sI195
I0
sI196
I0
sI197
I0
sI198
I0
sI199
I1
sI200
I1
sI201
I1
sI202
I1
sI203
I1
sI204
I1
sI205
I1
sI206
I0
sI207
I0
sI208
I1
sI209
I1
sI210
I1
sI211
I1
sI212
I1
sI213
I0
sI214
I1
sI215
I1
sI216
I1
sI217
I1
sI218
I1
sI219
I1
sI220
I1
sI221
I1
sI222
I1
sI223
I1
sI224
I1
sI225
I1
sI226
I1
sI227
I0
sI228
I0
sI229
I0
sI230
I0
sI231
I1
sI232
I1
sI233
I1
sI234
I1
sI235
I1
sI236
I1
sI237
I1
sI238
I1
sI239
I1
sI240
I1
sI241
I0
sI242
I0
sI243
I1
sI244
I0
sI245
I1
sI246
I0
sI247
I1
sI248
I1
sI249
I0
sI250
I1
sI251
I1
sI252
I1
sI253
I1
sI254
I1
sI255
I1
ssI32
(dp36
I0
I0
sI1
I1
sI2
I1
sI3
I0
sI4
I1
sI5
I1
sI6
I1
sI7
I1
sI8
I1
sI9
I0
sI10
I1
sI11
I1
sI12
I0
sI13
I1
sI14
I0
sI15
I1
sI16
I1
sI17
I1
sI18
I0
sI19
I0
sI20
I1
sI21
I1
sI22
I0
sI23
I1
sI24
I1
sI25
I1
sI26
I0
sI27
I1
sI28
I0
sI29
I0
sI30
I0
sI31
I1
sI32
I1
sI33
I1
sI34
I1
sI35
I0
sI36
I0
sI37
I1
sI38
I1
sI39
I1
sI40
I0
sI41
I0
sI42
I0
sI43
I1
sI44
I1
sI45
I0
sI46
I0
sI47
I1
sI48
I0
sI49
I0
sI50
I0
sI51
I1
sI52
I0
sI53
I1
sI54
I0
sI55
I0
sI56
I0
sI57
I1
sI58
I0
sI59
I1
sI60
I1
sI61
I0
sI62
I1
sI63
I1
sI64
I1
sI65
I0
sI66
I1
sI67
I0
sI68
I1
sI69
I0
sI70
I0
sI71
I1
sI72
I1
sI73
I1
sI74
I0
sI75
I1
sI76
I0
sI77
I0
sI78
I0
sI79
I0
sI80
I0
sI81
I1
sI82
I1
sI83
I0
sI84
I1
sI85
I1
sI86
I0
sI87
I1
sI88
I1
sI89
I0
sI90
I1
sI91
I0
sI92
I0
sI93
I0
sI94
I1
sI95
I0
sI96
I1
sI97
I0
sI98
I0
sI99
I1
sI100
I1
sI101
I1
sI102
I1
sI103
I1
sI104
I1
sI105
I1
sI106
I1
sI107
I0
sI108
I0
sI109
I1
sI110
I0
sI111
I0
sI112
I1
sI113
I1
sI114
I1
sI115
I0
sI116
I1
sI117
I1
sI118
I1
sI119
I1
sI120
I0
sI121
I1
sI122
I1
sI123
I1
sI124
I1
sI125
I1
sI126
I0
sI127
I0
sI128
I0
sI129
I1
sI130
I1
sI131
I0
sI132
I1
sI133
I0
sI134
I1
sI135
I0
sI136
I0
sI137
I1
sI138
I1
sI139
I0
sI140
I0
sI141
I0
sI142
I1
sI143
I0
sI144
I1
sI145
I0
sI146
I0
sI147
I1
sI148
I1
sI149
I0
sI150
I0
sI151
I0
sI152
I1
sI153
I0
sI154
I1
sI155
I0
sI156
I1
sI157
I1
sI158
I1
sI159
I0
sI160
I1
sI161
I1
sI162
I0
sI163
I0
sI164
I0
sI165
I0
sI166
I1
sI167
I0
sI168
I1
sI169
I0
sI170
I0
sI171
I1
sI172
I1
sI173
I0
sI174
I0
sI175
I0
sI176
I1
sI177
I1
sI178
I1
sI179
I1
sI180
I1
sI181
I0
sI182
I0
sI183
I1
sI184
I1
sI185
I0
sI186
I1
sI187
I1
sI188
I0
sI189
I1
sI190
I0
sI191
I0
sI192
I1
sI193
I1
sI194
I0
sI195
I1
sI196
I1
sI197
I0
sI198
I0
sI199
I1
sI200
I1
sI201
I1
sI202
I1
sI203
I1
sI204
I0
sI205
I1
sI206
I1
sI207
I1
sI208
I1
sI209
I1
sI210
I1
sI211
I1
sI212
I1
sI213
I0
sI214
I1
sI215
I1
sI216
I0
sI217
I1
sI218
I1
sI219
I1
sI220
I1
sI221
I1
sI222
I1
sI223
I1
sI224
I0
sI225
I1
sI226
I1
sI227
I1
sI228
I1
sI229
I1
sI230
I1
sI231
I1
sI232
I1
sI233
I0
sI234
I1
sI235
I1
sI236
I1
sI237
I1
sI238
I1
sI239
I1
sI240
I1
sI241
I1
sI242
I1
sI243
I1
sI244
I1
sI245
I0
sI246
I1
sI247
I0
sI248
I1
sI249
I1
sI250
I1
sI251
I1
sI252
I0
sI253
I0
sI254
I0
sI255
I1
ssI33
(dp37
I0
I1
sI1
I2
sI2
I0
sI3
I1
sI4
I1
sI5
I0
sI6
I0
sI7
I0
sI8
I1
sI9
I1
sI10
I0
sI11
I2
sI12
I2
sI13
I1
sI14
I1
sI15
I2
sI16
I1
sI17
I0
sI18
I0
sI19
I2
sI20
I2
sI21
I2
sI22
I0
sI23
I2
sI24
I1
sI25
I2
sI26
I0
sI27
I1
sI28
I2
sI29
I2
sI30
I0
sI31
I0
sI32
I1
sI33
I0
sI34
I2
sI35
I2
sI36
I1
sI37
I2
sI38
I1
sI39
I2
sI40
I1
sI41
I1
sI42
I0
sI43
I0
sI44
I1
sI45
I1
sI46
I2
sI47
I1
sI48
I0
sI49
I0
sI50
I0
sI51
I0
sI52
I0
sI53
I2
sI54
I0
sI55
I1
sI56
I1
sI57
I1
sI58
I0
sI59
I2
sI60
I2
sI61
I2
sI62
I0
sI63
I2
sI64
I1
sI65
I0
sI66
I0
sI67
I0
sI68
I1
sI69
I0
sI70
I2
sI71
I2
sI72
I2
sI73
I0
sI74
I2
sI75
I0
sI76
I2
sI77
I0
sI78
I2
sI79
I1
sI80
I1
sI81
I0
sI82
I0
sI83
I0
sI84
I1
sI85
I1
sI86
I1
sI87
I2
sI88
I1
sI89
I1
sI90
I2
sI91
I0
sI92
I1
sI93
I2
sI94
I1
sI95
I2
sI96
I1
sI97
I2
sI98
I1
sI99
I1
sI100
I1
sI101
I1
sI102
I0
sI103
I0
sI104
I2
sI105
I2
sI106
I2
sI107
I2
sI108
I2
sI109
I2
sI110
I2
sI111
I1
sI112
I2
sI113
I2
sI114
I2
sI115
I2
sI116
I2
sI117
I2
sI118
I2
sI119
I0
sI120
I0
sI121
I1
sI122
I0
sI123
I0
sI124
I1
sI125
I1
sI126
I2
sI127
I2
sI128
I1
sI129
I0
sI130
I0
sI131
I2
sI132
I2
sI133
I2
sI134
I1
sI135
I0
sI136
I0
sI137
I0
sI138
I0
sI139
I1
sI140
I2
sI141
I2
sI142
I1
sI143
I1
sI144
I1
sI145
I1
sI146
I0
sI147
I0
sI148
I2
sI149
I0
sI150
I1
sI151
I1
sI152
I2
sI153
I0
sI154
I1
sI155
I1
sI156
I1
sI157
I1
sI158
I2
sI159
I1
sI160
I2
sI161
I0
sI162
I2
sI163
I2
sI164
I2
sI165
I2
sI166
I1
sI167
I2
sI168
I1
sI169
I2
sI170
I2
sI171
I0
sI172
I1
sI173
I0
sI174
I0
sI175
I2
sI176
I2
sI177
I1
sI178
I2
sI179
I2
sI180
I0
sI181
I1
sI182
I1
sI183
I0
sI184
I1
sI185
I1
sI186
I0
sI187
I0
sI188
I2
sI189
I0
sI190
I2
sI191
I0
sI192
I1
sI193
I2
sI194
I1
sI195
I2
sI196
I2
sI197
I2
sI198
I2
sI199
I1
sI200
I2
sI201
I0
sI202
I0
sI203
I0
sI204
I2
sI205
I1
sI206
I0
sI207
I2
sI208
I0
sI209
I0
sI210
I0
sI211
I0
sI212
I1
sI213
I1
sI214
I1
sI215
I1
sI216
I1
sI217
I2
sI218
I0
sI219
I0
sI220
I1
sI221
I2
sI222
I1
sI223
I2
sI224
I0
sI225
I0
sI226
I0
sI227
I0
sI228
I1
sI229
I0
sI230
I0
sI231
I2
sI232
I2
sI233
I2
sI234
I2
sI235
I1
sI236
I2
sI237
I2
sI238
I1
sI239
I0
sI240
I0
sI241
I2
sI242
I1
sI243
I1
sI244
I2
sI245
I2
sI246
I0
sI247
I0
sI248
I2
sI249
I0
sI250
I2
sI251
I0
sI252
I0
sI253
I0
sI254
I1
sI255
I1
ssI34
(dp38
I0
I1
sI1
I1
sI2
I0
sI3
I0
sI4
I1
sI5
I1
sI6
I1
sI7
I1
sI8
I1
sI9
I0
sI10
I1
sI11
I1
sI12
I0
sI13
I1
sI14
I1
sI15
I0
sI16
I0
sI17
I0
sI18
I1
sI19
I1
sI20
I0
sI21
I0
sI22
I0
sI23
I0
sI24
I1
sI25
I1
sI26
I0
sI27
I0
sI28
I1
sI29
I1
sI30
I0
sI31
I0
sI32
I1
sI33
I1
sI34
I1
sI35
I1
sI36
I1
sI37
I1
sI38
I0
sI39
I1
sI40
I0
sI41
I0
sI42
I1
sI43
I0
sI44
I0
sI45
I1
sI46
I0
sI47
I0
sI48
I0
sI49
I0
sI50
I1
sI51
I1
sI52
I1
sI53
I1
sI54
I1
sI55
I1
sI56
I1
sI57
I1
sI58
I1
sI59
I1
sI60
I1
sI61
I0
sI62
I0
sI63
I1
sI64
I1
sI65
I1
sI66
I1
sI67
I1
sI68
I1
sI69
I0
sI70
I0
sI71
I1
sI72
I0
sI73
I1
sI74
I1
sI75
I0
sI76
I1
sI77
I0
sI78
I1
sI79
I0
sI80
I0
sI81
I1
sI82
I1
sI83
I1
sI84
I0
sI85
I0
sI86
I0
sI87
I1
sI88
I1
sI89
I1
sI90
I0
sI91
I0
sI92
I0
sI93
I0
sI94
I0
sI95
I1
sI96
I0
sI97
I0
sI98
I1
sI99
I1
sI100
I1
sI101
I0
sI102
I1
sI103
I1
sI104
I1
sI105
I1
sI106
I0
sI107
I0
sI108
I1
sI109
I0
sI110
I1
sI111
I1
sI112
I1
sI113
I1
sI114
I0
sI115
I0
sI116
I0
sI117
I1
sI118
I1
sI119
I1
sI120
I0
sI121
I1
sI122
I1
sI123
I1
sI124
I0
sI125
I1
sI126
I1
sI127
I0
sI128
I0
sI129
I0
sI130
I1
sI131
I1
sI132
I0
sI133
I0
sI134
I1
sI135
I1
sI136
I1
sI137
I1
sI138
I1
sI139
I0
sI140
I0
sI141
I0
sI142
I1
sI143
I0
sI144
I0
sI145
I1
sI146
I1
sI147
I0
sI148
I1
sI149
I1
sI150
I0
sI151
I1
sI152
I1
sI153
I1
sI154
I1
sI155
I0
sI156
I1
sI157
I1
sI158
I0
sI159
I1
sI160
I0
sI161
I0
sI162
I0
sI163
I0
sI164
I0
sI165
I0
sI166
I1
sI167
I1
sI168
I1
sI169
I0
sI170
I0
sI171
I1
sI172
I1
sI173
I0
sI174
I1
sI175
I0
sI176
I1
sI177
I1
sI178
I1
sI179
I1
sI180
I0
sI181
I0
sI182
I1
sI183
I1
sI184
I1
sI185
I1
sI186
I0
sI187
I0
sI188
I1
sI189
I1
sI190
I0
sI191
I0
sI192
I0
sI193
I1
sI194
I1
sI195
I1
sI196
I0
sI197
I0
sI198
I1
sI199
I1
sI200
I0
sI201
I1
sI202
I0
sI203
I0
sI204
I1
sI205
I1
sI206
I0
sI207
I1
sI208
I1
sI209
I1
sI210
I0
sI211
I1
sI212
I1
sI213
I0
sI214
I0
sI215
I0
sI216
I0
sI217
I0
sI218
I1
sI219
I0
sI220
I0
sI221
I1
sI222
I0
sI223
I0
sI224
I1
sI225
I1
sI226
I1
sI227
I0
sI228
I0
sI229
I1
sI230
I1
sI231
I0
sI232
I0
sI233
I0
sI234
I0
sI235
I0
sI236
I0
sI237
I0
sI238
I0
sI239
I0
sI240
I1
sI241
I1
sI242
I1
sI243
I1
sI244
I1
sI245
I1
sI246
I0
sI247
I0
sI248
I1
sI249
I0
sI250
I1
sI251
I0
sI252
I0
sI253
I0
sI254
I1
sI255
I0
ssI35
(dp39
I0
I0
sI1
I1
sI2
I0
sI3
I2
sI4
I0
sI5
I2
sI6
I1
sI7
I1
sI8
I1
sI9
I0
sI10
I1
sI11
I2
sI12
I0
sI13
I0
sI14
I0
sI15
I0
sI16
I2
sI17
I2
sI18
I1
sI19
I2
sI20
I0
sI21
I0
sI22
I0
sI23
I1
sI24
I2
sI25
I0
sI26
I0
sI27
I0
sI28
I0
sI29
I0
sI30
I0
sI31
I0
sI32
I0
sI33
I0
sI34
I1
sI35
I0
sI36
I2
sI37
I0
sI38
I2
sI39
I2
sI40
I2
sI41
I2
sI42
I2
sI43
I1
sI44
I1
sI45
I0
sI46
I0
sI47
I2
sI48
I1
sI49
I0
sI50
I0
sI51
I0
sI52
I1
sI53
I2
sI54
I1
sI55
I0
sI56
I2
sI57
I2
sI58
I2
sI59
I0
sI60
I2
sI61
I0
sI62
I2
sI63
I1
sI64
I2
sI65
I1
sI66
I0
sI67
I2
sI68
I0
sI69
I2
sI70
I2
sI71
I0
sI72
I2
sI73
I2
sI74
I0
sI75
I1
sI76
I0
sI77
I1
sI78
I1
sI79
I2
sI80
I1
sI81
I2
sI82
I2
sI83
I1
sI84
I0
sI85
I2
sI86
I0
sI87
I0
sI88
I2
sI89
I0
sI90
I1
sI91
I0
sI92
I0
sI93
I0
sI94
I2
sI95
I0
sI96
I0
sI97
I2
sI98
I2
sI99
I1
sI100
I2
sI101
I0
sI102
I0
sI103
I0
sI104
I2
sI105
I0
sI106
I2
sI107
I2
sI108
I2
sI109
I1
sI110
I2
sI111
I2
sI112
I0
sI113
I1
sI114
I2
sI115
I2
sI116
I0
sI117
I2
sI118
I2
sI119
I2
sI120
I0
sI121
I0
sI122
I0
sI123
I2
sI124
I0
sI125
I2
sI126
I1
sI127
I0
sI128
I0
sI129
I2
sI130
I2
sI131
I1
sI132
I2
sI133
I1
sI134
I2
sI135
I2
sI136
I2
sI137
I2
sI138
I0
sI139
I2
sI140
I0
sI141
I0
sI142
I2
sI143
I0
sI144
I2
sI145
I2
sI146
I0
sI147
I1
sI148
I2
sI149
I2
sI150
I2
sI151
I2
sI152
I0
sI153
I1
sI154
I0
sI155
I1
sI156
I1
sI157
I2
sI158
I0
sI159
I1
sI160
I0
sI161
I2
sI162
I1
sI163
I2
sI164
I2
sI165
I0
sI166
I2
sI167
I0
sI168
I2
sI169
I1
sI170
I0
sI171
I2
sI172
I2
sI173
I1
sI174
I2
sI175
I0
sI176
I1
sI177
I2
sI178
I0
sI179
I2
sI180
I1
sI181
I0
sI182
I1
sI183
I1
sI184
I2
sI185
I2
sI186
I0
sI187
I2
sI188
I1
sI189
I2
sI190
I0
sI191
I2
sI192
I0
sI193
I2
sI194
I2
sI195
I2
sI196
I2
sI197
I0
sI198
I0
sI199
I0
sI200
I1
sI201
I1
sI202
I1
sI203
I1
sI204
I2
sI205
I0
sI206
I0
sI207
I2
sI208
I2
sI209
I2
sI210
I1
sI211
I2
sI212
I2
sI213
I0
sI214
I0
sI215
I0
sI216
I1
sI217
I0
sI218
I2
sI219
I2
sI220
I1
sI221
I2
sI222
I1
sI223
I2
sI224
I2
sI225
I2
sI226
I2
sI227
I2
sI228
I2
sI229
I2
sI230
I0
sI231
I2
sI232
I1
sI233
I0
sI234
I2
sI235
I2
sI236
I1
sI237
I0
sI238
I1
sI239
I0
sI240
I1
sI241
I1
sI242
I1
sI243
I2
sI244
I2
sI245
I2
sI246
I0
sI247
I0
sI248
I2
sI249
I1
sI250
I2
sI251
I0
sI252
I2
sI253
I1
sI254
I2
sI255
I1
ssI36
(dp40
I0
I0
sI1
I0
sI2
I0
sI3
I0
sI4
I0
sI5
I0
sI6
I0
sI7
I1
sI8
I1
sI9
I1
sI10
I0
sI11
I0
sI12
I1
sI13
I1
sI14
I1
sI15
I1
sI16
I1
sI17
I1
sI18
I0
sI19
I0
sI20
I0
sI21
I0
sI22
I0
sI23
I0
sI24
I0
sI25
I0
sI26
I0
sI27
I0
sI28
I0
sI29
I1
sI30
I0
sI31
I1
sI32
I0
sI33
I0
sI34
I1
sI35
I0
sI36
I0
sI37
I0
sI38
I0
sI39
I0
sI40
I1
sI41
I0
sI42
I1
sI43
I0
sI44
I0
sI45
I1
sI46
I0
sI47
I0
sI48
I0
sI49
I0
sI50
I0
sI51
I0
sI52
I0
sI53
I1
sI54
I1
sI55
I1
sI56
I1
sI57
I0
sI58
I1
sI59
I1
sI60
I1
sI61
I0
sI62
I1
sI63
I1
sI64
I0
sI65
I1
sI66
I0
sI67
I1
sI68
I0
sI69
I1
sI70
I0
sI71
I0
sI72
I0
sI73
I1
sI74
I0
sI75
I0
sI76
I0
sI77
I0
sI78
I1
sI79
I0
sI80
I0
sI81
I0
sI82
I1
sI83
I1
sI84
I0
sI85
I0
sI86
I0
sI87
I0
sI88
I0
sI89
I0
sI90
I0
sI91
I0
sI92
I0
sI93
I0
sI94
I1
sI95
I0
sI96
I0
sI97
I0
sI98
I0
sI99
I1
sI100
I0
sI101
I1
sI102
I0
sI103
I0
sI104
I0
sI105
I0
sI106
I0
sI107
I0
sI108
I1
sI109
I0
sI110
I0
sI111
I0
sI112
I1
sI113
I0
sI114
I0
sI115
I1
sI116
I0
sI117
I0
sI118
I1
sI119
I0
sI120
I0
sI121
I0
sI122
I0
sI123
I1
sI124
I1
sI125
I1
sI126
I1
sI127
I1
sI128
I0
sI129
I0
sI130
I0
sI131
I1
sI132
I0
sI133
I1
sI134
I1
sI135
I1
sI136
I1
sI137
I0
sI138
I1
sI139
I0
sI140
I1
sI141
I0
sI142
I0
sI143
I0
sI144
I0
sI145
I0
sI146
I0
sI147
I1
sI148
I0
sI149
I1
sI150
I1
sI151
I1
sI152
I0
sI153
I0
sI154
I1
sI155
I1
sI156
I1
sI157
I0
sI158
I1
sI159
I0
sI160
I1
sI161
I1
sI162
I1
sI163
I0
sI164
I0
sI165
I0
sI166
I1
sI167
I1
sI168
I1
sI169
I0
sI170
I0
sI171
I1
sI172
I1
sI173
I1
sI174
I0
sI175
I0
sI176
I0
sI177
I0
sI178
I0
sI179
I0
sI180
I0
sI181
I1
sI182
I0
sI183
I0
sI184
I0
sI185
I1
sI186
I0
sI187
I1
sI188
I0
sI189
I0
sI190
I0
sI191
I0
sI192
I0
sI193
I1
sI194
I1
sI195
I0
sI196
I0
sI197
I1
sI198
I1
sI199
I0
sI200
I1
sI201
I1
sI202
I0
sI203
I0
sI204
I0
sI205
I0
sI206
I0
sI207
I0
sI208
I0
sI209
I1
sI210
I1
sI211
I1
sI212
I1
sI213
I1
sI214
I1
sI215
I0
sI216
I0
sI217
I1
sI218
I0
sI219
I0
sI220
I1
sI221
I1
sI222
I0
sI223
I1
sI224
I0
sI225
I1
sI226
I0
sI227
I1
sI228
I1
sI229
I1
sI230
I1
sI231
I1
sI232
I0
sI233
I0
sI234
I0
sI235
I0
sI236
I1
sI237
I0
sI238
I1
sI239
I1
sI240
I0
sI241
I1
sI242
I1
sI243
I1
sI244
I1
sI245
I1
sI246
I1
sI247
I0
sI248
I0
sI249
I0
sI250
I0
sI251
I1
sI252
I0
sI253
I0
sI254
I0
sI255
I1
ssI37
(dp41
I0
I1
sI1
I0
sI2
I0
sI3
I0
sI4
I0
sI5
I1
sI6
I1
sI7
I0
sI8
I0
sI9
I0
sI10
I0
sI11
I1
sI12
I0
sI13
I0
sI14
I0
sI15
I0
sI16
I0
sI17
I1
sI18
I0
sI19
I0
sI20
I0
sI21
I0
sI22
I1
sI23
I1
sI24
I0
sI25
I0
sI26
I0
sI27
I0
sI28
I0
sI29
I0
sI30
I0
sI31
I1
sI32
I0
sI33
I0
sI34
I0
sI35
I0
sI36
I1
sI37
I0
sI38
I0
sI39
I1
sI40
I1
sI41
I0
sI42
I0
sI43
I0
sI44
I1
sI45
I0
sI46
I0
sI47
I0
sI48
I0
sI49
I0
sI50
I0
sI51
I1
sI52
I0
sI53
I1
sI54
I0
sI55
I0
sI56
I1
sI57
I1
sI58
I1
sI59
I0
sI60
I0
sI61
I1
sI62
I1
sI63
I1
sI64
I0
sI65
I0
sI66
I0
sI67
I1
sI68
I1
sI69
I0
sI70
I0
sI71
I0
sI72
I1
sI73
I1
sI74
I1
sI75
I0
sI76
I0
sI77
I0
sI78
I0
sI79
I1
sI80
I0
sI81
I1
sI82
I1
sI83
I1
sI84
I0
sI85
I0
sI86
I0
sI87
I0
sI88
I1
sI89
I0
sI90
I1
sI91
I0
sI92
I0
sI93
I0
sI94
I0
sI95
I1
sI96
I0
sI97
I0
sI98
I1
sI99
I1
sI100
I1
sI101
I0
sI102
I0
sI103
I1
sI104
I0
sI105
I0
sI106
I0
sI107
I0
sI108
I0
sI109
I1
sI110
I0
sI111
I0
sI112
I0
sI113
I0
sI114
I1
sI115
I1
sI116
I1
sI117
I0
sI118
I0
sI119
I0
sI120
I0
sI121
I1
sI122
I1
sI123
I1
sI124
I0
sI125
I0
sI126
I0
sI127
I0
sI128
I0
sI129
I0
sI130
I0
sI131
I1
sI132
I1
sI133
I0
sI134
I0
sI135
I1
sI136
I0
sI137
I1
sI138
I1
sI139
I1
sI140
I0
sI141
I0
sI142
I0
sI143
I0
sI144
I1
sI145
I0
sI146
I1
sI147
I1
sI148
I1
sI149
I0
sI150
I1
sI151
I0
sI152
I1
sI153
I0
sI154
I0
sI155
I0
sI156
I1
sI157
I0
sI158
I0
sI159
I0
sI160
I1
sI161
I0
sI162
I0
sI163
I0
sI164
I1
sI165
I1
sI166
I1
sI167
I1
sI168
I1
sI169
I0
sI170
I0
sI171
I1
sI172
I0
sI173
I0
sI174
I0
sI175
I0
sI176
I0
sI177
I1
sI178
I0
sI179
I0
sI180
I0
sI181
I1
sI182
I0
sI183
I0
sI184
I0
sI185
I1
sI186
I1
sI187
I1
sI188
I0
sI189
I0
sI190
I1
sI191
I0
sI192
I0
sI193
I1
sI194
I1
sI195
I0
sI196
I0
sI197
I1
sI198
I1
sI199
I1
sI200
I0
sI201
I1
sI202
I1
sI203
I1
sI204
I1
sI205
I0
sI206
I0
sI207
I0
sI208
I1
sI209
I1
sI210
I0
sI211
I0
sI212
I1
sI213
I1
sI214
I1
sI215
I0
sI216
I1
sI217
I0
sI218
I1
sI219
I0
sI220
I0
sI221
I0
sI222
I0
sI223
I1
sI224
I1
sI225
I1
sI226
I0
sI227
I0
sI228
I1
sI229
I1
sI230
I1
sI231
I0
sI232
I0
sI233
I0
sI234
I1
sI235
I0
sI236
I0
sI237
I1
sI238
I1
sI239
I1
sI240
I0
sI241
I0
sI242
I0
sI243
I0
sI244
I1
sI245
I0
sI246
I1
sI247
I0
sI248
I0
sI249
I0
sI250
I0
sI251
I0
sI252
I0
sI253
I0
sI254
I0
sI255
I0
ssI38
(dp42
I0
I1
sI1
I1
sI2
I1
sI3
I1
sI4
I1
sI5
I1
sI6
I1
sI7
I1
sI8
I1
sI9
I1
sI10
I1
sI11
I1
sI12
I1
sI13
I1
sI14
I1
sI15
I1
sI16
I1
sI17
I1
sI18
I1
sI19
I1
sI20
I1
sI21
I0
sI22
I0
sI23
I0
sI24
I1
sI25
I1
sI26
I1
sI27
I0
sI28
I1
sI29
I1
sI30
I1
sI31
I1
sI32
I1
sI33
I0
sI34
I1
sI35
I0
sI36
I0
sI37
I1
sI38
I0
sI39
I0
sI40
I0
sI41
I1
sI42
I1
sI43
I1
sI44
I1
sI45
I1
sI46
I1
sI47
I1
sI48
I1
sI49
I1
sI50
I1
sI51
I1
sI52
I0
sI53
I0
sI54
I0
sI55
I0
sI56
I1
sI57
I1
sI58
I1
sI59
I1
sI60
I1
sI61
I1
sI62
I1
sI63
I1
sI64
I1
sI65
I1
sI66
I1
sI67
I0
sI68
I1
sI69
I1
sI70
I0
sI71
I0
sI72
I1
sI73
I1
sI74
I1
sI75
I1
sI76
I1
sI77
I1
sI78
I1
sI79
I1
sI80
I1
sI81
I0
sI82
I1
sI83
I0
sI84
I0
sI85
I1
sI86
I1
sI87
I0
sI88
I1
sI89
I1
sI90
I1
sI91
I1
sI92
I1
sI93
I1
sI94
I1
sI95
I1
sI96
I1
sI97
I0
sI98
I1
sI99
I0
sI100
I0
sI101
I0
sI102
I0
sI103
I0
sI104
I1
sI105
I1
sI106
I1
sI107
I1
sI108
I0
sI109
I0
sI110
I0
sI111
I1
sI112
I1
sI113
I1
sI114
I1
sI115
I0
sI116
I0
sI117
I1
sI118
I1
sI119
I0
sI120
I1
sI121
I1
sI122
I1
sI123
I1
sI124
I1
sI125
I1
sI126
I1
sI127
I1
sI128
I1
sI129
I1
sI130
I0
sI131
I0
sI132
I1
sI133
I1
sI134
I0
sI135
I0
sI136
I1
sI137
I1
sI138
I1
sI139
I1
sI140
I1
sI141
I0
sI142
I1
sI143
I1
sI144
I1
sI145
I1
sI146
I1
sI147
I0
sI148
I1
sI149
I1
sI150
I0
sI151
I0
sI152
I0
sI153
I0
sI154
I1
sI155
I1
sI156
I1
sI157
I0
sI158
I1
sI159
I1
sI160
I1
sI161
I1
sI162
I0
sI163
I0
sI164
I1
sI165
I0
sI166
I0
sI167
I0
sI168
I0
sI169
I1
sI170
I1
sI171
I1
sI172
I1
sI173
I1
sI174
I1
sI175
I1
sI176
I1
sI177
I0
sI178
I0
sI179
I0
sI180
I1
sI181
I0
sI182
I1
sI183
I1
sI184
I1
sI185
I1
sI186
I1
sI187
I1
sI188
I1
sI189
I1
sI190
I1
sI191
I1
sI192
I1
sI193
I0
sI194
I0
sI195
I0
sI196
I0
sI197
I0
sI198
I0
sI199
I1
sI200
I1
sI201
I1
sI202
I1
sI203
I1
sI204
I1
sI205
I1
sI206
I1
sI207
I1
sI208
I0
sI209
I0
sI210
I0
sI211
I0
sI212
I0
sI213
I0
sI214
I0
sI215
I1
sI216
I1
sI217
I1
sI218
I1
sI219
I1
sI220
I1
sI221
I1
sI222
I1
sI223
I1
sI224
I1
sI225
I0
sI226
I0
sI227
I1
sI228
I1
sI229
I1
sI230
I1
sI231
I1
sI232
I1
sI233
I1
sI234
I1
sI235
I1
sI236
I1
sI237
I1
sI238
I1
sI239
I1
sI240
I1
sI241
I1
sI242
I1
sI243
I1
sI244
I1
sI245
I1
sI246
I1
sI247
I1
sI248
I1
sI249
I1
sI250
I1
sI251
I1
sI252
I1
sI253
I1
sI254
I1
sI255
I1
ssI39
(dp43
I0
I2
sI1
I2
sI2
I0
sI3
I2
sI4
I0
sI5
I2
sI6
I0
sI7
I0
sI8
I2
sI9
I0
sI10
I0
sI11
I0
sI12
I0
sI13
I0
sI14
I0
sI15
I0
sI16
I0
sI17
I0
sI18
I0
sI19
I0
sI20
I0
sI21
I2
sI22
I0
sI23
I2
sI24
I2
sI25
I0
sI26
I0
sI27
I0
sI28
I0
sI29
I0
sI30
I1
sI31
I0
sI32
I2
sI33
I0
sI34
I0
sI35
I0
sI36
I1
sI37
I0
sI38
I0
sI39
I2
sI40
I1
sI41
I1
sI42
I0
sI43
I1
sI44
I2
sI45
I2
sI46
I1
sI47
I1
sI48
I2
sI49
I2
sI50
I1
sI51
I1
sI52
I2
sI53
I0
sI54
I0
sI55
I0
sI56
I2
sI57
I0
sI58
I0
sI59
I0
sI60
I2
sI61
I0
sI62
I0
sI63
I0
sI64
I0
sI65
I2
sI66
I2
sI67
I2
sI68
I2
sI69
I2
sI70
I2
sI71
I2
sI72
I2
sI73
I2
sI74
I0
sI75
I0
sI76
I0
sI77
I0
sI78
I2
sI79
I0
sI80
I0
sI81
I2
sI82
I2
sI83
I1
sI84
I1
sI85
I2
sI86
I2
sI87
I2
sI88
I0
sI89
I0
sI90
I2
sI91
I0
sI92
I0
sI93
I2
sI94
I2
sI95
I2
sI96
I2
sI97
I0
sI98
I2
sI99
I1
sI100
I1
sI101
I2
sI102
I1
sI103
I0
sI104
I0
sI105
I0
sI106
I0
sI107
I1
sI108
I0
sI109
I2
sI110
I0
sI111
I0
sI112
I0
sI113
I0
sI114
I0
sI115
I2
sI116
I1
sI117
I0
sI118
I0
sI119
I1
sI120
I1
sI121
I0
sI122
I2
sI123
I1
sI124
I0
sI125
I1
sI126
I1
sI127
I1
sI128
I2
sI129
I2
sI130
I1
sI131
I1
sI132
I0
sI133
I0
sI134
I0
sI135
I0
sI136
I1
sI137
I1
sI138
I1
sI139
I0
sI140
I0
sI141
I1
sI142
I2
sI143
I2
sI144
I0
sI145
I0
sI146
I0
sI147
I1
sI148
I0
sI149
I0
sI150
I0
sI151
I0
sI152
I0
sI153
I0
sI154
I0
sI155
I0
sI156
I0
sI157
I0
sI158
I0
sI159
I0
sI160
I0
sI161
I0
sI162
I2
sI163
I1
sI164
I0
sI165
I0
sI166
I0
sI167
I1
sI168
I0
sI169
I0
sI170
I0
sI171
I2
sI172
I0
sI173
I1
sI174
I2
sI175
I1
sI176
I0
sI177
I2
sI178
I2
sI179
I1
sI180
I0
sI181
I0
sI182
I1
sI183
I1
sI184
I1
sI185
I0
sI186
I1
sI187
I0
sI188
I0
sI189
I0
sI190
I0
sI191
I0
sI192
I0
sI193
I0
sI194
I2
sI195
I2
sI196
I1
sI197
I1
sI198
I2
sI199
I0
sI200
I2
sI201
I0
sI202
I1
sI203
I1
sI204
I0
sI205
I0
sI206
I0
sI207
I1
sI208
I2
sI209
I0
sI210
I2
sI211
I1
sI212
I1
sI213
I1
sI214
I1
sI215
I0
sI216
I0
sI217
I0
sI218
I0
sI219
I0
sI220
I0
sI221
I0
sI222
I0
sI223
I0
sI224
I1
sI225
I1
sI226
I0
sI227
I1
sI228
I1
sI229
I1
sI230
I1
sI231
I0
sI232
I0
sI233
I0
sI234
I0
sI235
I0
sI236
I0
sI237
I2
sI238
I0
sI239
I0
sI240
I1
sI241
I1
sI242
I0
sI243
I0
sI244
I1
sI245
I0
sI246
I1
sI247
I0
sI248
I2
sI249
I2
sI250
I0
sI251
I0
sI252
I0
sI253
I0
sI254
I0
sI255
I0
ssI40
(dp44
I0
I0
sI1
I2
sI2
I0
sI3
I0
sI4
I0
sI5
I0
sI6
I0
sI7
I0
sI8
I0
sI9
I0
sI10
I0
sI11
I0
sI12
I0
sI13
I0
sI14
I2
sI15
I0
sI16
I0
sI17
I0
sI18
I2
sI19
I0
sI20
I0
sI21
I0
sI22
I0
sI23
I0
sI24
I0
sI25
I0
sI26
I0
sI27
I0
sI28
I0
sI29
I2
sI30
I0
sI31
I2
sI32
I0
sI33
I0
sI34
I0
sI35
I0
sI36
I0
sI37
I0
sI38
I0
sI39
I2
sI40
I0
sI41
I0
sI42
I0
sI43
I0
sI44
I1
sI45
I2
sI46
I1
sI47
I0
sI48
I0
sI49
I0
sI50
I0
sI51
I0
sI52
I2
sI53
I0
sI54
I2
sI55
I2
sI56
I0
sI57
I0
sI58
I0
sI59
I0
sI60
I1
sI61
I2
sI62
I0
sI63
I0
sI64
I0
sI65
I0
sI66
I0
sI67
I0
sI68
I0
sI69
I0
sI70
I2
sI71
I2
sI72
I2
sI73
I1
sI74
I0
sI75
I2
sI76
I0
sI77
I1
sI78
I0
sI79
I0
sI80
I0
sI81
I0
sI82
I1
sI83
I1
sI84
I2
sI85
I0
sI86
I2
sI87
I2
sI88
I2
sI89
I0
sI90
I1
sI91
I2
sI92
I0
sI93
I0
sI94
I0
sI95
I0
sI96
I1
sI97
I0
sI98
I2
sI99
I2
sI100
I2
sI101
I2
sI102
I2
sI103
I2
sI104
I2
sI105
I2
sI106
I0
sI107
I0
sI108
I1
sI109
I1
sI110
I0
sI111
I0
sI112
I0
sI113
I0
sI114
I0
sI115
I2
sI116
I2
sI117
I2
sI118
I2
sI119
I2
sI120
I0
sI121
I2
sI122
I1
sI123
I1
sI124
I2
sI125
I1
sI126
I1
sI127
I1
sI128
I1
sI129
I0
sI130
I0
sI131
I1
sI132
I0
sI133
I0
sI134
I2
sI135
I1
sI136
I1
sI137
I1
sI138
I2
sI139
I0
sI140
I0
sI141
I1
sI142
I1
sI143
I1
sI144
I2
sI145
I0
sI146
I1
sI147
I1
sI148
I0
sI149
I2
sI150
I2
sI151
I1
sI152
I1
sI153
I1
sI154
I2
sI155
I0
sI156
I1
sI157
I1
sI158
I1
sI159
I1
sI160
I0
sI161
I0
sI162
I2
sI163
I1
sI164
I0
sI165
I0
sI166
I0
sI167
I1
sI168
I1
sI169
I2
sI170
I2
sI171
I0
sI172
I1
sI173
I1
sI174
I1
sI175
I0
sI176
I0
sI177
I0
sI178
I0
sI179
I0
sI180
I0
sI181
I0
sI182
I0
sI183
I1
sI184
I0
sI185
I0
sI186
I0
sI187
I0
sI188
I0
sI189
I0
sI190
I0
sI191
I0
sI192
I1
sI193
I0
sI194
I0
sI195
I0
sI196
I0
sI197
I0
sI198
I0
sI199
I0
sI200
I0
sI201
I0
sI202
I0
sI203
I0
sI204
I0
sI205
I0
sI206
I0
sI207
I0
sI208
I0
sI209
I0
sI210
I2
sI211
I0
sI212
I0
sI213
I0
sI214
I0
sI215
I0
sI216
I0
sI217
I0
sI218
I2
sI219
I2
sI220
I1
sI221
I2
sI222
I0
sI223
I0
sI224
I0
sI225
I0
sI226
I0
sI227
I0
sI228
I0
sI229
I0
sI230
I0
sI231
I0
sI232
I0
sI233
I2
sI234
I2
sI235
I0
sI236
I2
sI237
I1
sI238
I0
sI239
I0
sI240
I0
sI241
I0
sI242
I0
sI243
I2
sI244
I1
sI245
I0
sI246
I0
sI247
I2
sI248
I0
sI249
I0
sI250
I0
sI251
I0
sI252
I0
sI253
I0
sI254
I0
sI255
I0
ssI41
(dp45
I0
I1
sI1
I0
sI2
I0
sI3
I2
sI4
I1
sI5
I0
sI6
I1
sI7
I1
sI8
I1
sI9
I1
sI10
I1
sI11
I1
sI12
I1
sI13
I1
sI14
I1
sI15
I1
sI16
I1
sI17
I1
sI18
I1
sI19
I1
sI20
I2
sI21
I0
sI22
I1
sI23
I0
sI24
I1
sI25
I0
sI26
I0
sI27
I1
sI28
I2
sI29
I2
sI30
I1
sI31
I0
sI32
I1
sI33
I1
sI34
I1
sI35
I2
sI36
I2
sI37
I1
sI38
I2
sI39
I0
sI40
I0
sI41
I0
sI42
I0
sI43
I0
sI44
I0
sI45
I1
sI46
I1
sI47
I1
sI48
I0
sI49
I1
sI50
I1
sI51
I0
sI52
I1
sI53
I0
sI54
I1
sI55
I0
sI56
I0
sI57
I1
sI58
I0
sI59
I1
sI60
I1
sI61
I1
sI62
I1
sI63
I1
sI64
I0
sI65
I1
sI66
I1
sI67
I1
sI68
I0
sI69
I1
sI70
I2
sI71
I0
sI72
I1
sI73
I0
sI74
I2
sI75
I1
sI76
I1
sI77
I1
sI78
I1
sI79
I2
sI80
I0
sI81
I0
sI82
I1
sI83
I1
sI84
I2
sI85
I1
sI86
I0
sI87
I0
sI88
I0
sI89
I1
sI90
I0
sI91
I1
sI92
I1
sI93
I0
sI94
I0
sI95
I0
sI96
I0
sI97
I0
sI98
I1
sI99
I1
sI100
I1
sI101
I1
sI102
I1
sI103
I1
sI104
I0
sI105
I0
sI106
I0
sI107
I1
sI108
I0
sI109
I1
sI110
I0
sI111
I0
sI112
I1
sI113
I2
sI114
I0
sI115
I0
sI116
I1
sI117
I0
sI118
I2
sI119
I2
sI120
I1
sI121
I1
sI122
I0
sI123
I1
sI124
I1
sI125
I1
sI126
I0
sI127
I1
sI128
I0
sI129
I2
sI130
I1
sI131
I2
sI132
I1
sI133
I1
sI134
I1
sI135
I0
sI136
I0
sI137
I0
sI138
I2
sI139
I2
sI140
I2
sI141
I0
sI142
I2
sI143
I1
sI144
I1
sI145
I2
sI146
I0
sI147
I0
sI148
I2
sI149
I0
sI150
I0
sI151
I0
sI152
I0
sI153
I1
sI154
I1
sI155
I0
sI156
I0
sI157
I2
sI158
I1
sI159
I1
sI160
I2
sI161
I2
sI162
I1
sI163
I0
sI164
I2
sI165
I0
sI166
I1
sI167
I0
sI168
I0
sI169
I2
sI170
I0
sI171
I0
sI172
I0
sI173
I0
sI174
I0
sI175
I0
sI176
I1
sI177
I0
sI178
I0
sI179
I2
sI180
I1
sI181
I1
sI182
I0
sI183
I0
sI184
I0
sI185
I0
sI186
I0
sI187
I0
sI188
I2
sI189
I1
sI190
I2
sI191
I0
sI192
I0
sI193
I0
sI194
I0
sI195
I1
sI196
I1
sI197
I1
sI198
I0
sI199
I1
sI200
I1
sI201
I2
sI202
I2
sI203
I1
sI204
I1
sI205
I1
sI206
I2
sI207
I1
sI208
I2
sI209
I1
sI210
I1
sI211
I1
sI212
I1
sI213
I2
sI214
I1
sI215
I1
sI216
I1
sI217
I0
sI218
I0
sI219
I0
sI220
I2
sI221
I1
sI222
I0
sI223
I1
sI224
I0
sI225
I0
sI226
I1
sI227
I0
sI228
I0
sI229
I1
sI230
I2
sI231
I1
sI232
I1
sI233
I0
sI234
I0
sI235
I1
sI236
I1
sI237
I2
sI238
I1
sI239
I1
sI240
I0
sI241
I0
sI242
I0
sI243
I0
sI244
I2
sI245
I2
sI246
I2
sI247
I2
sI248
I1
sI249
I2
sI250
I1
sI251
I1
sI252
I1
sI253
I1
sI254
I1
sI255
I1
ssI42
(dp46
I0
I0
sI1
I1
sI2
I2
sI3
I3
sI4
I2
sI5
I0
sI6
I1
sI7
I1
sI8
I3
sI9
I0
sI10
I3
sI11
I2
sI12
I2
sI13
I3
sI14
I3
sI15
I1
sI16
I1
sI17
I3
sI18
I3
sI19
I3
sI20
I3
sI21
I1
sI22
I3
sI23
I1
sI24
I3
sI25
I0
sI26
I1
sI27
I1
sI28
I3
sI29
I3
sI30
I3
sI31
I1
sI32
I3
sI33
I1
sI34
I3
sI35
I0
sI36
I3
sI37
I3
sI38
I1
sI39
I0
sI40
I0
sI41
I0
sI42
I0
sI43
I1
sI44
I3
sI45
I3
sI46
I1
sI47
I3
sI48
I0
sI49
I1
sI50
I1
sI51
I1
sI52
I1
sI53
I0
sI54
I3
sI55
I0
sI56
I1
sI57
I3
sI58
I2
sI59
I3
sI60
I0
sI61
I3
sI62
I1
sI63
I3
sI64
I3
sI65
I3
sI66
I1
sI67
I3
sI68
I0
sI69
I3
sI70
I0
sI71
I3
sI72
I3
sI73
I0
sI74
I0
sI75
I3
sI76
I1
sI77
I1
sI78
I2
sI79
I3
sI80
I2
sI81
I2
sI82
I2
sI83
I2
sI84
I1
sI85
I3
sI86
I2
sI87
I2
sI88
I1
sI89
I3
sI90
I1
sI91
I0
sI92
I1
sI93
I1
sI94
I1
sI95
I1
sI96
I1
sI97
I2
sI98
I0
sI99
I3
sI100
I3
sI101
I0
sI102
I2
sI103
I1
sI104
I0
sI105
I0
sI106
I0
sI107
I0
sI108
I0
sI109
I0
sI110
I1
sI111
I1
sI112
I0
sI113
I3
sI114
I0
sI115
I2
sI116
I3
sI117
I2
sI118
I2
sI119
I2
sI120
I3
sI121
I0
sI122
I0
sI123
I0
sI124
I0
sI125
I0
sI126
I0
sI127
I1
sI128
I1
sI129
I3
sI130
I0
sI131
I3
sI132
I3
sI133
I3
sI134
I3
sI135
I2
sI136
I0
sI137
I0
sI138
I3
sI139
I3
sI140
I0
sI141
I1
sI142
I3
sI143
I1
sI144
I3
sI145
I3
sI146
I2
sI147
I1
sI148
I3
sI149
I2
sI150
I2
sI151
I2
sI152
I2
sI153
I3
sI154
I2
sI155
I1
sI156
I1
sI157
I1
sI158
I2
sI159
I3
sI160
I1
sI161
I3
sI162
I2
sI163
I2
sI164
I0
sI165
I1
sI166
I3
sI167
I2
sI168
I2
sI169
I2
sI170
I1
sI171
I1
sI172
I1
sI173
I2
sI174
I2
sI175
I2
sI176
I3
sI177
I2
sI178
I2
sI179
I2
sI180
I3
sI181
I1
sI182
I2
sI183
I0
sI184
I2
sI185
I2
sI186
I1
sI187
I1
sI188
I1
sI189
I1
sI190
I3
sI191
I1
sI192
I2
sI193
I2
sI194
I2
sI195
I2
sI196
I1
sI197
I1
sI198
I1
sI199
I3
sI200
I3
sI201
I3
sI202
I3
sI203
I3
sI204
I3
sI205
I3
sI206
I3
sI207
I3
sI208
I3
sI209
I3
sI210
I3
sI211
I3
sI212
I3
sI213
I3
sI214
I1
sI215
I3
sI216
I0
sI217
I0
sI218
I0
sI219
I1
sI220
I1
sI221
I1
sI222
I2
sI223
I3
sI224
I2
sI225
I2
sI226
I2
sI227
I2
sI228
I2
sI229
I1
sI230
I1
sI231
I3
sI232
I3
sI233
I0
sI234
I0
sI235
I1
sI236
I1
sI237
I1
sI238
I1
sI239
I1
sI240
I2
sI241
I2
sI242
I1
sI243
I1
sI244
I1
sI245
I1
sI246
I1
sI247
I3
sI248
I1
sI249
I3
sI250
I3
sI251
I3
sI252
I1
sI253
I1
sI254
I3
sI255
I3
ssI43
(dp47
I0
I0
sI1
I1
sI2
I0
sI3
I0
sI4
I0
sI5
I0
sI6
I0
sI7
I0
sI8
I0
sI9
I0
sI10
I0
sI11
I1
sI12
I0
sI13
I1
sI14
I1
sI15
I1
sI16
I0
sI17
I1
sI18
I0
sI19
I0
sI20
I0
sI21
I0
sI22
I1
sI23
I0
sI24
I1
sI25
I0
sI26
I0
sI27
I1
sI28
I0
sI29
I1
sI30
I1
sI31
I1
sI32
I0
sI33
I1
sI34
I1
sI35
I0
sI36
I1
sI37
I1
sI38
I1
sI39
I0
sI40
I0
sI41
I1
sI42
I0
sI43
I0
sI44
I0
sI45
I0
sI46
I0
sI47
I1
sI48
I0
sI49
I0
sI50
I0
sI51
I0
sI52
I0
sI53
I0
sI54
I1
sI55
I0
sI56
I0
sI57
I1
sI58
I0
sI59
I1
sI60
I1
sI61
I1
sI62
I0
sI63
I1
sI64
I0
sI65
I1
sI66
I1
sI67
I1
sI68
I0
sI69
I0
sI70
I0
sI71
I0
sI72
I1
sI73
I0
sI74
I1
sI75
I0
sI76
I0
sI77
I1
sI78
I0
sI79
I0
sI80
I0
sI81
I0
sI82
I0
sI83
I0
sI84
I0
sI85
I0
sI86
I0
sI87
I0
sI88
I0
sI89
I0
sI90
I0
sI91
I0
sI92
I0
sI93
I0
sI94
I0
sI95
I0
sI96
I0
sI97
I0
sI98
I0
sI99
I1
sI100
I0
sI101
I0
sI102
I0
sI103
I0
sI104
I0
sI105
I0
sI106
I0
sI107
I0
sI108
I0
sI109
I1
sI110
I0
sI111
I1
sI112
I0
sI113
I0
sI114
I0
sI115
I0
sI116
I1
sI117
I0
sI118
I0
sI119
I0
sI120
I0
sI121
I0
sI122
I0
sI123
I0
sI124
I1
sI125
I0
sI126
I0
sI127
I0
sI128
I0
sI129
I1
sI130
I0
sI131
I1
sI132
I1
sI133
I0
sI134
I1
sI135
I0
sI136
I0
sI137
I0
sI138
I1
sI139
I1
sI140
I0
sI141
I0
sI142
I1
sI143
I0
sI144
I0
sI145
I0
sI146
I0
sI147
I0
sI148
I0
sI149
I0
sI150
I0
sI151
I0
sI152
I0
sI153
I1
sI154
I1
sI155
I0
sI156
I0
sI157
I0
sI158
I0
sI159
I1
sI160
I0
sI161
I0
sI162
I0
sI163
I0
sI164
I0
sI165
I0
sI166
I0
sI167
I0
sI168
I1
sI169
I1
sI170
I0
sI171
I0
sI172
I0
sI173
I0
sI174
I0
sI175
I0
sI176
I1
sI177
I0
sI178
I0
sI179
I0
sI180
I1
sI181
I0
sI182
I0
sI183
I0
sI184
I0
sI185
I0
sI186
I0
sI187
I1
sI188
I0
sI189
I1
sI190
I1
sI191
I0
sI192
I0
sI193
I0
sI194
I0
sI195
I0
sI196
I0
sI197
I0
sI198
I0
sI199
I1
sI200
I1
sI201
I1
sI202
I1
sI203
I1
sI204
I1
sI205
I1
sI206
I1
sI207
I1
sI208
I1
sI209
I1
sI210
I1
sI211
I1
sI212
I1
sI213
I1
sI214
I1
sI215
I1
sI216
I0
sI217
I0
sI218
I0
sI219
I0
sI220
I1
sI221
I1
sI222
I0
sI223
I1
sI224
I0
sI225
I1
sI226
I0
sI227
I0
sI228
I0
sI229
I1
sI230
I1
sI231
I1
sI232
I0
sI233
I1
sI234
I0
sI235
I0
sI236
I1
sI237
I0
sI238
I0
sI239
I0
sI240
I0
sI241
I0
sI242
I0
sI243
I0
sI244
I1
sI245
I0
sI246
I0
sI247
I1
sI248
I1
sI249
I1
sI250
I1
sI251
I0
sI252
I0
sI253
I1
sI254
I1
sI255
I0
ssI44
(dp48
I0
I1
sI1
I1
sI2
I1
sI3
I1
sI4
I1
sI5
I1
sI6
I1
sI7
I1
sI8
I1
sI9
I1
sI10
I1
sI11
I1
sI12
I1
sI13
I0
sI14
I1
sI15
I1
sI16
I1
sI17
I1
sI18
I1
sI19
I1
sI20
I0
sI21
I1
sI22
I0
sI23
I0
sI24
I0
sI25
I1
sI26
I1
sI27
I1
sI28
I1
sI29
I0
sI30
I1
sI31
I1
sI32
I1
sI33
I0
sI34
I0
sI35
I1
sI36
I0
sI37
I0
sI38
I0
sI39
I1
sI40
I1
sI41
I0
sI42
I1
sI43
I1
sI44
I1
sI45
I0
sI46
I1
sI47
I1
sI48
I1
sI49
I0
sI50
I1
sI51
I1
sI52
I1
sI53
I1
sI54
I0
sI55
I1
sI56
I1
sI57
I0
sI58
I1
sI59
I0
sI60
I1
sI61
I0
sI62
I1
sI63
I0
sI64
I1
sI65
I1
sI66
I0
sI67
I0
sI68
I1
sI69
I1
sI70
I1
sI71
I1
sI72
I0
sI73
I1
sI74
I0
sI75
I1
sI76
I1
sI77
I1
sI78
I1
sI79
I0
sI80
I1
sI81
I1
sI82
I1
sI83
I1
sI84
I1
sI85
I1
sI86
I1
sI87
I1
sI88
I1
sI89
I1
sI90
I1
sI91
I1
sI92
I1
sI93
I1
sI94
I1
sI95
I1
sI96
I1
sI97
I1
sI98
I1
sI99
I0
sI100
I0
sI101
I1
sI102
I1
sI103
I1
sI104
I1
sI105
I1
sI106
I1
sI107
I1
sI108
I0
sI109
I0
sI110
I1
sI111
I1
sI112
I1
sI113
I1
sI114
I1
sI115
I1
sI116
I1
sI117
I1
sI118
I1
sI119
I1
sI120
I1
sI121
I1
sI122
I1
sI123
I1
sI124
I0
sI125
I1
sI126
I1
sI127
I1
sI128
I1
sI129
I1
sI130
I1
sI131
I1
sI132
I1
sI133
I1
sI134
I1
sI135
I1
sI136
I1
sI137
I1
sI138
I0
sI139
I0
sI140
I1
sI141
I1
sI142
I0
sI143
I1
sI144
I1
sI145
I1
sI146
I1
sI147
I1
sI148
I1
sI149
I1
sI150
I1
sI151
I1
sI152
I1
sI153
I0
sI154
I1
sI155
I1
sI156
I1
sI157
I1
sI158
I0
sI159
I0
sI160
I0
sI161
I1
sI162
I1
sI163
I1
sI164
I1
sI165
I1
sI166
I0
sI167
I1
sI168
I1
sI169
I1
sI170
I1
sI171
I1
sI172
I1
sI173
I1
sI174
I1
sI175
I1
sI176
I0
sI177
I1
sI178
I1
sI179
I1
sI180
I1
sI181
I1
sI182
I1
sI183
I1
sI184
I1
sI185
I1
sI186
I1
sI187
I1
sI188
I1
sI189
I1
sI190
I0
sI191
I1
sI192
I1
sI193
I1
sI194
I1
sI195
I1
sI196
I1
sI197
I1
sI198
I1
sI199
I0
sI200
I0
sI201
I0
sI202
I0
sI203
I0
sI204
I0
sI205
I0
sI206
I0
sI207
I0
sI208
I0
sI209
I0
sI210
I0
sI211
I0
sI212
I0
sI213
I0
sI214
I0
sI215
I0
sI216
I1
sI217
I1
sI218
I1
sI219
I1
sI220
I1
sI221
I1
sI222
I1
sI223
I0
sI224
I1
sI225
I1
sI226
I1
sI227
I1
sI228
I1
sI229
I0
sI230
I0
sI231
I0
sI232
I1
sI233
I1
sI234
I1
sI235
I1
sI236
I0
sI237
I1
sI238
I1
sI239
I1
sI240
I0
sI241
I1
sI242
I1
sI243
I1
sI244
I1
sI245
I1
sI246
I1
sI247
I0
sI248
I0
sI249
I0
sI250
I1
sI251
I1
sI252
I1
sI253
I1
sI254
I0
sI255
I0
ssI45
(dp49
I0
I1
sI1
I2
sI2
I0
sI3
I0
sI4
I0
sI5
I0
sI6
I0
sI7
I2
sI8
I2
sI9
I1
sI10
I2
sI11
I0
sI12
I0
sI13
I2
sI14
I2
sI15
I0
sI16
I0
sI17
I0
sI18
I0
sI19
I0
sI20
I0
sI21
I2
sI22
I0
sI23
I0
sI24
I0
sI25
I0
sI26
I2
sI27
I0
sI28
I0
sI29
I0
sI30
I0
sI31
I0
sI32
I0
sI33
I2
sI34
I0
sI35
I0
sI36
I0
sI37
I2
sI38
I0
sI39
I0
sI40
I0
sI41
I0
sI42
I0
sI43
I0
sI44
I0
sI45
I0
sI46
I0
sI47
I0
sI48
I0
sI49
I0
sI50
I0
sI51
I1
sI52
I0
sI53
I1
sI54
I0
sI55
I0
sI56
I0
sI57
I0
sI58
I1
sI59
I0
sI60
I0
sI61
I0
sI62
I1
sI63
I0
sI64
I0
sI65
I0
sI66
I0
sI67
I0
sI68
I1
sI69
I0
sI70
I0
sI71
I1
sI72
I0
sI73
I1
sI74
I0
sI75
I1
sI76
I2
sI77
I1
sI78
I2
sI79
I1
sI80
I1
sI81
I1
sI82
I2
sI83
I1
sI84
I0
sI85
I1
sI86
I2
sI87
I1
sI88
I1
sI89
I1
sI90
I1
sI91
I2
sI92
I1
sI93
I1
sI94
I1
sI95
I2
sI96
I1
sI97
I2
sI98
I1
sI99
I1
sI100
I1
sI101
I1
sI102
I1
sI103
I1
sI104
I1
sI105
I2
sI106
I1
sI107
I0
sI108
I1
sI109
I2
sI110
I1
sI111
I1
sI112
I1
sI113
I1
sI114
I1
sI115
I1
sI116
I1
sI117
I1
sI118
I0
sI119
I2
sI120
I2
sI121
I1
sI122
I1
sI123
I2
sI124
I1
sI125
I1
sI126
I2
sI127
I1
sI128
I1
sI129
I0
sI130
I1
sI131
I1
sI132
I1
sI133
I2
sI134
I0
sI135
I2
sI136
I1
sI137
I2
sI138
I1
sI139
I1
sI140
I1
sI141
I1
sI142
I2
sI143
I1
sI144
I1
sI145
I1
sI146
I1
sI147
I1
sI148
I1
sI149
I1
sI150
I1
sI151
I1
sI152
I1
sI153
I0
sI154
I1
sI155
I2
sI156
I1
sI157
I1
sI158
I1
sI159
I0
sI160
I2
sI161
I1
sI162
I1
sI163
I1
sI164
I1
sI165
I1
sI166
I2
sI167
I1
sI168
I2
sI169
I1
sI170
I1
sI171
I2
sI172
I2
sI173
I1
sI174
I1
sI175
I1
sI176
I0
sI177
I1
sI178
I1
sI179
I1
sI180
I0
sI181
I2
sI182
I1
sI183
I1
sI184
I1
sI185
I2
sI186
I1
sI187
I1
sI188
I1
sI189
I1
sI190
I1
sI191
I1
sI192
I1
sI193
I1
sI194
I0
sI195
I0
sI196
I1
sI197
I1
sI198
I2
sI199
I0
sI200
I2
sI201
I1
sI202
I0
sI203
I0
sI204
I0
sI205
I0
sI206
I0
sI207
I0
sI208
I0
sI209
I0
sI210
I0
sI211
I0
sI212
I0
sI213
I0
sI214
I0
sI215
I0
sI216
I1
sI217
I1
sI218
I1
sI219
I1
sI220
I2
sI221
I2
sI222
I1
sI223
I0
sI224
I1
sI225
I1
sI226
I1
sI227
I2
sI228
I1
sI229
I0
sI230
I2
sI231
I0
sI232
I1
sI233
I1
sI234
I1
sI235
I2
sI236
I1
sI237
I1
sI238
I1
sI239
I2
sI240
I1
sI241
I1
sI242
I2
sI243
I1
sI244
I2
sI245
I1
sI246
I2
sI247
I1
sI248
I1
sI249
I2
sI250
I1
sI251
I1
sI252
I1
sI253
I2
sI254
I1
sI255
I1
ssI46
(dp50
I0
I0
sI1
I2
sI2
I2
sI3
I2
sI4
I2
sI5
I2
sI6
I0
sI7
I2
sI8
I2
sI9
I0
sI10
I2
sI11
I2
sI12
I2
sI13
I1
sI14
I2
sI15
I2
sI16
I2
sI17
I2
sI18
I2
sI19
I2
sI20
I2
sI21
I2
sI22
I1
sI23
I0
sI24
I1
sI25
I0
sI26
I2
sI27
I2
sI28
I2
sI29
I1
sI30
I1
sI31
I2
sI32
I2
sI33
I1
sI34
I2
sI35
I2
sI36
I2
sI37
I1
sI38
I1
sI39
I0
sI40
I2
sI41
I2
sI42
I2
sI43
I2
sI44
I0
sI45
I2
sI46
I0
sI47
I2
sI48
I2
sI49
I2
sI50
I2
sI51
I2
sI52
I2
sI53
I0
sI54
I2
sI55
I2
sI56
I2
sI57
I1
sI58
I2
sI59
I2
sI60
I2
sI61
I1
sI62
I2
sI63
I1
sI64
I2
sI65
I2
sI66
I2
sI67
I1
sI68
I2
sI69
I2
sI70
I2
sI71
I2
sI72
I0
sI73
I2
sI74
I2
sI75
I2
sI76
I2
sI77
I2
sI78
I2
sI79
I2
sI80
I2
sI81
I0
sI82
I2
sI83
I1
sI84
I2
sI85
I2
sI86
I2
sI87
I0
sI88
I2
sI89
I0
sI90
I2
sI91
I2
sI92
I2
sI93
I0
sI94
I2
sI95
I2
sI96
I2
sI97
I2
sI98
I2
sI99
I2
sI100
I2
sI101
I2
sI102
I0
sI103
I2
sI104
I2
sI105
I2
sI106
I2
sI107
I2
sI108
I0
sI109
I2
sI110
I2
sI111
I2
sI112
I0
sI113
I2
sI114
I2
sI115
I2
sI116
I2
sI117
I2
sI118
I2
sI119
I0
sI120
I2
sI121
I2
sI122
I0
sI123
I2
sI124
I2
sI125
I2
sI126
I2
sI127
I2
sI128
I0
sI129
I2
sI130
I2
sI131
I2
sI132
I2
sI133
I2
sI134
I2
sI135
I2
sI136
I2
sI137
I2
sI138
I2
sI139
I2
sI140
I2
sI141
I2
sI142
I1
sI143
I2
sI144
I2
sI145
I2
sI146
I0
sI147
I0
sI148
I2
sI149
I0
sI150
I2
sI151
I0
sI152
I2
sI153
I1
sI154
I2
sI155
I2
sI156
I2
sI157
I2
sI158
I2
sI159
I2
sI160
I2
sI161
I2
sI162
I2
sI163
I0
sI164
I0
sI165
I0
sI166
I1
sI167
I2
sI168
I2
sI169
I2
sI170
I0
sI171
I2
sI172
I2
sI173
I2
sI174
I2
sI175
I2
sI176
I2
sI177
I2
sI178
I2
sI179
I0
sI180
I1
sI181
I2
sI182
I2
sI183
I2
sI184
I0
sI185
I2
sI186
I0
sI187
I2
sI188
I2
sI189
I2
sI190
I1
sI191
I0
sI192
I2
sI193
I2
sI194
I2
sI195
I2
sI196
I2
sI197
I2
sI198
I0
sI199
I2
sI200
I2
sI201
I1
sI202
I1
sI203
I2
sI204
I1
sI205
I1
sI206
I2
sI207
I1
sI208
I1
sI209
I1
sI210
I1
sI211
I1
sI212
I1
sI213
I1
sI214
I1
sI215
I1
sI216
I0
sI217
I2
sI218
I0
sI219
I2
sI220
I2
sI221
I2
sI222
I2
sI223
I2
sI224
I0
sI225
I2
sI226
I2
sI227
I2
sI228
I0
sI229
I2
sI230
I2
sI231
I2
sI232
I2
sI233
I2
sI234
I2
sI235
I2
sI236
I2
sI237
I2
sI238
I2
sI239
I2
sI240
I2
sI241
I2
sI242
I2
sI243
I2
sI244
I2
sI245
I2
sI246
I2
sI247
I0
sI248
I2
sI249
I2
sI250
I2
sI251
I2
sI252
I2
sI253
I2
sI254
I2
sI255
I2
ssI47
(dp51
I0
I1
sI1
I0
sI2
I0
sI3
I0
sI4
I1
sI5
I0
sI6
I0
sI7
I1
sI8
I0
sI9
I0
sI10
I0
sI11
I0
sI12
I0
sI13
I0
sI14
I0
sI15
I0
sI16
I0
sI17
I0
sI18
I0
sI19
I0
sI20
I1
sI21
I0
sI22
I0
sI23
I0
sI24
I0
sI25
I1
sI26
I1
sI27
I1
sI28
I1
sI29
I0
sI30
I0
sI31
I0
sI32
I0
sI33
I0
sI34
I0
sI35
I0
sI36
I0
sI37
I0
sI38
I0
sI39
I0
sI40
I0
sI41
I0
sI42
I0
sI43
I0
sI44
I2
sI45
I0
sI46
I0
sI47
I0
sI48
I0
sI49
I1
sI50
I1
sI51
I1
sI52
I0
sI53
I1
sI54
I0
sI55
I1
sI56
I1
sI57
I0
sI58
I1
sI59
I0
sI60
I2
sI61
I2
sI62
I0
sI63
I0
sI64
I1
sI65
I0
sI66
I0
sI67
I0
sI68
I1
sI69
I0
sI70
I0
sI71
I0
sI72
I0
sI73
I0
sI74
I2
sI75
I0
sI76
I0
sI77
I2
sI78
I0
sI79
I2
sI80
I0
sI81
I0
sI82
I0
sI83
I0
sI84
I0
sI85
I1
sI86
I0
sI87
I0
sI88
I0
sI89
I0
sI90
I0
sI91
I0
sI92
I0
sI93
I0
sI94
I1
sI95
I0
sI96
I0
sI97
I1
sI98
I0
sI99
I2
sI100
I0
sI101
I0
sI102
I0
sI103
I0
sI104
I0
sI105
I2
sI106
I0
sI107
I0
sI108
I0
sI109
I2
sI110
I0
sI111
I0
sI112
I0
sI113
I0
sI114
I0
sI115
I0
sI116
I1
sI117
I0
sI118
I0
sI119
I0
sI120
I1
sI121
I0
sI122
I0
sI123
I0
sI124
I0
sI125
I0
sI126
I0
sI127
I0
sI128
I0
sI129
I1
sI130
I1
sI131
I0
sI132
I0
sI133
I0
sI134
I0
sI135
I0
sI136
I0
sI137
I1
sI138
I2
sI139
I2
sI140
I0
sI141
I0
sI142
I0
sI143
I1
sI144
I1
sI145
I0
sI146
I1
sI147
I1
sI148
I0
sI149
I0
sI150
I0
sI151
I1
sI152
I0
sI153
I2
sI154
I0
sI155
I0
sI156
I0
sI157
I0
sI158
I0
sI159
I0
sI160
I0
sI161
I0
sI162
I0
sI163
I0
sI164
I0
sI165
I0
sI166
I0
sI167
I2
sI168
I0
sI169
I0
sI170
I1
sI171
I0
sI172
I0
sI173
I0
sI174
I0
sI175
I1
sI176
I0
sI177
I0
sI178
I0
sI179
I2
sI180
I0
sI181
I1
sI182
I1
sI183
I1
sI184
I0
sI185
I1
sI186
I1
sI187
I0
sI188
I0
sI189
I0
sI190
I0
sI191
I0
sI192
I0
sI193
I0
sI194
I0
sI195
I0
sI196
I0
sI197
I0
sI198
I0
sI199
I0
sI200
I2
sI201
I2
sI202
I0
sI203
I0
sI204
I2
sI205
I0
sI206
I0
sI207
I2
sI208
I2
sI209
I2
sI210
I2
sI211
I0
sI212
I2
sI213
I2
sI214
I2
sI215
I2
sI216
I0
sI217
I0
sI218
I0
sI219
I0
sI220
I1
sI221
I0
sI222
I1
sI223
I1
sI224
I1
sI225
I0
sI226
I2
sI227
I0
sI228
I0
sI229
I0
sI230
I0
sI231
I0
sI232
I0
sI233
I1
sI234
I1
sI235
I2
sI236
I0
sI237
I1
sI238
I1
sI239
I0
sI240
I1
sI241
I0
sI242
I1
sI243
I0
sI244
I0
sI245
I0
sI246
I0
sI247
I0
sI248
I0
sI249
I0
sI250
I2
sI251
I0
sI252
I2
sI253
I0
sI254
I0
sI255
I1
ssI48
(dp52
I0
I0
sI1
I2
sI2
I2
sI3
I0
sI4
I2
sI5
I2
sI6
I2
sI7
I2
sI8
I0
sI9
I2
sI10
I2
sI11
I2
sI12
I2
sI13
I0
sI14
I2
sI15
I2
sI16
I2
sI17
I2
sI18
I2
sI19
I2
sI20
I2
sI21
I2
sI22
I2
sI23
I2
sI24
I2
sI25
I2
sI26
I0
sI27
I2
sI28
I2
sI29
I1
sI30
I2
sI31
I2
sI32
I2
sI33
I2
sI34
I0
sI35
I1
sI36
I2
sI37
I2
sI38
I2
sI39
I2
sI40
I0
sI41
I2
sI42
I0
sI43
I2
sI44
I2
sI45
I2
sI46
I2
sI47
I0
sI48
I0
sI49
I2
sI50
I2
sI51
I2
sI52
I0
sI53
I0
sI54
I1
sI55
I0
sI56
I0
sI57
I2
sI58
I2
sI59
I2
sI60
I2
sI61
I0
sI62
I2
sI63
I2
sI64
I0
sI65
I2
sI66
I0
sI67
I2
sI68
I2
sI69
I0
sI70
I2
sI71
I2
sI72
I1
sI73
I2
sI74
I0
sI75
I2
sI76
I0
sI77
I0
sI78
I2
sI79
I2
sI80
I2
sI81
I1
sI82
I0
sI83
I0
sI84
I0
sI85
I0
sI86
I0
sI87
I0
sI88
I0
sI89
I0
sI90
I0
sI91
I2
sI92
I2
sI93
I1
sI94
I2
sI95
I2
sI96
I0
sI97
I0
sI98
I0
sI99
I2
sI100
I2
sI101
I0
sI102
I0
sI103
I2
sI104
I2
sI105
I2
sI106
I2
sI107
I2
sI108
I0
sI109
I2
sI110
I0
sI111
I0
sI112
I2
sI113
I2
sI114
I2
sI115
I2
sI116
I0
sI117
I2
sI118
I2
sI119
I2
sI120
I2
sI121
I2
sI122
I0
sI123
I1
sI124
I2
sI125
I2
sI126
I0
sI127
I2
sI128
I2
sI129
I2
sI130
I2
sI131
I0
sI132
I2
sI133
I2
sI134
I2
sI135
I2
sI136
I0
sI137
I2
sI138
I2
sI139
I0
sI140
I0
sI141
I2
sI142
I2
sI143
I2
sI144
I0
sI145
I2
sI146
I2
sI147
I2
sI148
I0
sI149
I2
sI150
I2
sI151
I2
sI152
I2
sI153
I2
sI154
I0
sI155
I2
sI156
I2
sI157
I2
sI158
I2
sI159
I2
sI160
I0
sI161
I2
sI162
I2
sI163
I2
sI164
I2
sI165
I2
sI166
I2
sI167
I0
sI168
I1
sI169
I0
sI170
I2
sI171
I0
sI172
I0
sI173
I2
sI174
I2
sI175
I2
sI176
I2
sI177
I2
sI178
I2
sI179
I2
sI180
I0
sI181
I2
sI182
I2
sI183
I0
sI184
I0
sI185
I2
sI186
I2
sI187
I2
sI188
I2
sI189
I1
sI190
I2
sI191
I2
sI192
I2
sI193
I2
sI194
I2
sI195
I2
sI196
I2
sI197
I2
sI198
I2
sI199
I1
sI200
I0
sI201
I0
sI202
I2
sI203
I2
sI204
I2
sI205
I1
sI206
I0
sI207
I0
sI208
I2
sI209
I0
sI210
I0
sI211
I1
sI212
I2
sI213
I0
sI214
I2
sI215
I2
sI216
I2
sI217
I1
sI218
I0
sI219
I1
sI220
I2
sI221
I2
sI222
I0
sI223
I2
sI224
I2
sI225
I1
sI226
I0
sI227
I2
sI228
I0
sI229
I0
sI230
I1
sI231
I2
sI232
I0
sI233
I0
sI234
I2
sI235
I2
sI236
I2
sI237
I0
sI238
I2
sI239
I0
sI240
I2
sI241
I0
sI242
I0
sI243
I2
sI244
I2
sI245
I0
sI246
I2
sI247
I2
sI248
I1
sI249
I2
sI250
I2
sI251
I0
sI252
I2
sI253
I0
sI254
I2
sI255
I2
ssI49
(dp53
I0
I2
sI1
I1
sI2
I2
sI3
I1
sI4
I1
sI5
I2
sI6
I2
sI7
I0
sI8
I1
sI9
I1
sI10
I1
sI11
I1
sI12
I1
sI13
I1
sI14
I2
sI15
I1
sI16
I1
sI17
I1
sI18
I1
sI19
I1
sI20
I1
sI21
I1
sI22
I0
sI23
I2
sI24
I0
sI25
I1
sI26
I2
sI27
I1
sI28
I0
sI29
I0
sI30
I2
sI31
I0
sI32
I1
sI33
I1
sI34
I0
sI35
I2
sI36
I1
sI37
I0
sI38
I1
sI39
I1
sI40
I1
sI41
I0
sI42
I1
sI43
I1
sI44
I1
sI45
I1
sI46
I1
sI47
I1
sI48
I1
sI49
I1
sI50
I1
sI51
I1
sI52
I1
sI53
I1
sI54
I1
sI55
I2
sI56
I1
sI57
I1
sI58
I1
sI59
I1
sI60
I1
sI61
I0
sI62
I1
sI63
I1
sI64
I1
sI65
I1
sI66
I1
sI67
I0
sI68
I2
sI69
I1
sI70
I2
sI71
I1
sI72
I1
sI73
I1
sI74
I1
sI75
I1
sI76
I1
sI77
I0
sI78
I1
sI79
I1
sI80
I1
sI81
I2
sI82
I2
sI83
I1
sI84
I1
sI85
I1
sI86
I1
sI87
I0
sI88
I1
sI89
I1
sI90
I1
sI91
I2
sI92
I2
sI93
I1
sI94
I1
sI95
I0
sI96
I2
sI97
I1
sI98
I1
sI99
I1
sI100
I1
sI101
I2
sI102
I1
sI103
I1
sI104
I1
sI105
I1
sI106
I1
sI107
I1
sI108
I1
sI109
I1
sI110
I1
sI111
I2
sI112
I1
sI113
I1
sI114
I1
sI115
I1
sI116
I1
sI117
I1
sI118
I1
sI119
I1
sI120
I1
sI121
I1
sI122
I2
sI123
I2
sI124
I0
sI125
I2
sI126
I1
sI127
I1
sI128
I2
sI129
I1
sI130
I1
sI131
I1
sI132
I2
sI133
I2
sI134
I1
sI135
I1
sI136
I1
sI137
I1
sI138
I1
sI139
I1
sI140
I1
sI141
I2
sI142
I1
sI143
I2
sI144
I2
sI145
I2
sI146
I1
sI147
I1
sI148
I2
sI149
I2
sI150
I2
sI151
I1
sI152
I1
sI153
I2
sI154
I1
sI155
I2
sI156
I2
sI157
I1
sI158
I1
sI159
I1
sI160
I1
sI161
I1
sI162
I1
sI163
I1
sI164
I1
sI165
I1
sI166
I0
sI167
I2
sI168
I1
sI169
I1
sI170
I1
sI171
I1
sI172
I1
sI173
I2
sI174
I1
sI175
I1
sI176
I1
sI177
I2
sI178
I1
sI179
I1
sI180
I1
sI181
I1
sI182
I2
sI183
I1
sI184
I2
sI185
I1
sI186
I1
sI187
I2
sI188
I2
sI189
I1
sI190
I1
sI191
I1
sI192
I2
sI193
I2
sI194
I2
sI195
I1
sI196
I1
sI197
I1
sI198
I1
sI199
I2
sI200
I1
sI201
I1
sI202
I1
sI203
I1
sI204
I1
sI205
I1
sI206
I1
sI207
I0
sI208
I1
sI209
I1
sI210
I1
sI211
I1
sI212
I2
sI213
I1
sI214
I1
sI215
I1
sI216
I0
sI217
I1
sI218
I1
sI219
I1
sI220
I1
sI221
I2
sI222
I1
sI223
I1
sI224
I1
sI225
I1
sI226
I0
sI227
I1
sI228
I1
sI229
I1
sI230
I1
sI231
I1
sI232
I1
sI233
I1
sI234
I2
sI235
I1
sI236
I1
sI237
I0
sI238
I1
sI239
I0
sI240
I1
sI241
I2
sI242
I1
sI243
I2
sI244
I1
sI245
I1
sI246
I1
sI247
I2
sI248
I2
sI249
I1
sI250
I1
sI251
I1
sI252
I2
sI253
I1
sI254
I0
sI255
I2
ssI50
(dp54
I0
I2
sI1
I0
sI2
I2
sI3
I2
sI4
I1
sI5
I1
sI6
I2
sI7
I1
sI8
I0
sI9
I0
sI10
I0
sI11
I0
sI12
I2
sI13
I0
sI14
I0
sI15
I1
sI16
I0
sI17
I2
sI18
I0
sI19
I1
sI20
I2
sI21
I2
sI22
I1
sI23
I2
sI24
I1
sI25
I1
sI26
I0
sI27
I3
sI28
I0
sI29
I0
sI30
I0
sI31
I0
sI32
I0
sI33
I3
sI34
I1
sI35
I0
sI36
I1
sI37
I3
sI38
I1
sI39
I1
sI40
I2
sI41
I0
sI42
I0
sI43
I1
sI44
I1
sI45
I0
sI46
I2
sI47
I0
sI48
I1
sI49
I0
sI50
I0
sI51
I0
sI52
I0
sI53
I1
sI54
I2
sI55
I1
sI56
I3
sI57
I0
sI58
I0
sI59
I0
sI60
I0
sI61
I3
sI62
I1
sI63
I3
sI64
I0
sI65
I0
sI66
I1
sI67
I0
sI68
I1
sI69
I0
sI70
I1
sI71
I1
sI72
I1
sI73
I0
sI74
I0
sI75
I0
sI76
I3
sI77
I1
sI78
I2
sI79
I0
sI80
I0
sI81
I2
sI82
I0
sI83
I1
sI84
I1
sI85
I0
sI86
I0
sI87
I0
sI88
I0
sI89
I1
sI90
I1
sI91
I0
sI92
I2
sI93
I0
sI94
I0
sI95
I3
sI96
I0
sI97
I2
sI98
I2
sI99
I0
sI100
I0
sI101
I0
sI102
I3
sI103
I0
sI104
I1
sI105
I0
sI106
I2
sI107
I1
sI108
I1
sI109
I3
sI110
I1
sI111
I0
sI112
I0
sI113
I3
sI114
I1
sI115
I0
sI116
I3
sI117
I0
sI118
I0
sI119
I1
sI120
I2
sI121
I0
sI122
I0
sI123
I2
sI124
I1
sI125
I0
sI126
I2
sI127
I1
sI128
I2
sI129
I0
sI130
I0
sI131
I0
sI132
I0
sI133
I0
sI134
I1
sI135
I0
sI136
I0
sI137
I0
sI138
I0
sI139
I3
sI140
I1
sI141
I0
sI142
I1
sI143
I1
sI144
I0
sI145
I0
sI146
I2
sI147
I0
sI148
I3
sI149
I0
sI150
I0
sI151
I2
sI152
I2
sI153
I3
sI154
I2
sI155
I3
sI156
I0
sI157
I3
sI158
I0
sI159
I1
sI160
I2
sI161
I3
sI162
I0
sI163
I2
sI164
I0
sI165
I0
sI166
I0
sI167
I2
sI168
I0
sI169
I0
sI170
I2
sI171
I0
sI172
I1
sI173
I2
sI174
I2
sI175
I0
sI176
I0
sI177
I0
sI178
I0
sI179
I0
sI180
I1
sI181
I0
sI182
I0
sI183
I0
sI184
I0
sI185
I0
sI186
I0
sI187
I0
sI188
I0
sI189
I3
sI190
I0
sI191
I0
sI192
I3
sI193
I2
sI194
I3
sI195
I2
sI196
I0
sI197
I1
sI198
I3
sI199
I0
sI200
I1
sI201
I1
sI202
I3
sI203
I1
sI204
I1
sI205
I1
sI206
I1
sI207
I3
sI208
I1
sI209
I0
sI210
I1
sI211
I3
sI212
I1
sI213
I1
sI214
I1
sI215
I1
sI216
I1
sI217
I0
sI218
I0
sI219
I0
sI220
I0
sI221
I0
sI222
I0
sI223
I1
sI224
I0
sI225
I0
sI226
I1
sI227
I0
sI228
I0
sI229
I0
sI230
I0
sI231
I1
sI232
I0
sI233
I0
sI234
I2
sI235
I0
sI236
I3
sI237
I0
sI238
I0
sI239
I2
sI240
I1
sI241
I0
sI242
I0
sI243
I0
sI244
I3
sI245
I0
sI246
I0
sI247
I1
sI248
I2
sI249
I1
sI250
I0
sI251
I2
sI252
I0
sI253
I0
sI254
I1
sI255
I1
ssI51
(dp55
I0
I0
sI1
I0
sI2
I0
sI3
I0
sI4
I0
sI5
I0
sI6
I0
sI7
I0
sI8
I0
sI9
I0
sI10
I0
sI11
I0
sI12
I0
sI13
I0
sI14
I0
sI15
I0
sI16
I0
sI17
I1
sI18
I0
sI19
I0
sI20
I0
sI21
I0
sI22
I1
sI23
I0
sI24
I1
sI25
I0
sI26
I0
sI27
I0
sI28
I0
sI29
I1
sI30
I0
sI31
I0
sI32
I1
sI33
I0
sI34
I0
sI35
I0
sI36
I0
sI37
I1
sI38
I1
sI39
I0
sI40
I0
sI41
I1
sI42
I0
sI43
I0
sI44
I0
sI45
I1
sI46
I0
sI47
I0
sI48
I0
sI49
I1
sI50
I1
sI51
I0
sI52
I0
sI53
I0
sI54
I0
sI55
I0
sI56
I0
sI57
I1
sI58
I0
sI59
I0
sI60
I0
sI61
I0
sI62
I0
sI63
I1
sI64
I0
sI65
I0
sI66
I0
sI67
I0
sI68
I0
sI69
I0
sI70
I0
sI71
I0
sI72
I1
sI73
I0
sI74
I0
sI75
I0
sI76
I0
sI77
I0
sI78
I0
sI79
I0
sI80
I0
sI81
I0
sI82
I0
sI83
I0
sI84
I0
sI85
I0
sI86
I0
sI87
I0
sI88
I0
sI89
I0
sI90
I0
sI91
I0
sI92
I0
sI93
I0
sI94
I0
sI95
I0
sI96
I0
sI97
I0
sI98
I0
sI99
I0
sI100
I0
sI101
I1
sI102
I0
sI103
I0
sI104
I0
sI105
I0
sI106
I0
sI107
I0
sI108
I0
sI109
I1
sI110
I0
sI111
I0
sI112
I0
sI113
I0
sI114
I0
sI115
I0
sI116
I0
sI117
I0
sI118
I0
sI119
I0
sI120
I0
sI121
I0
sI122
I0
sI123
I0
sI124
I0
sI125
I0
sI126
I0
sI127
I0
sI128
I0
sI129
I0
sI130
I0
sI131
I0
sI132
I0
sI133
I0
sI134
I1
sI135
I0
sI136
I1
sI137
I0
sI138
I1
sI139
I0
sI140
I0
sI141
I0
sI142
I0
sI143
I0
sI144
I0
sI145
I0
sI146
I0
sI147
I0
sI148
I0
sI149
I0
sI150
I0
sI151
I0
sI152
I0
sI153
I1
sI154
I0
sI155
I0
sI156
I0
sI157
I0
sI158
I0
sI159
I0
sI160
I0
sI161
I0
sI162
I0
sI163
I0
sI164
I1
sI165
I0
sI166
I0
sI167
I0
sI168
I0
sI169
I0
sI170
I0
sI171
I0
sI172
I0
sI173
I0
sI174
I0
sI175
I0
sI176
I0
sI177
I0
sI178
I0
sI179
I0
sI180
I0
sI181
I0
sI182
I0
sI183
I0
sI184
I0
sI185
I0
sI186
I0
sI187
I0
sI188
I0
sI189
I0
sI190
I1
sI191
I0
sI192
I0
sI193
I0
sI194
I1
sI195
I0
sI196
I0
sI197
I0
sI198
I0
sI199
I0
sI200
I1
sI201
I1
sI202
I1
sI203
I1
sI204
I1
sI205
I1
sI206
I1
sI207
I1
sI208
I1
sI209
I1
sI210
I1
sI211
I1
sI212
I1
sI213
I1
sI214
I0
sI215
I1
sI216
I1
sI217
I0
sI218
I0
sI219
I0
sI220
I0
sI221
I0
sI222
I0
sI223
I0
sI224
I0
sI225
I1
sI226
I0
sI227
I0
sI228
I0
sI229
I0
sI230
I1
sI231
I1
sI232
I0
sI233
I0
sI234
I0
sI235
I0
sI236
I0
sI237
I0
sI238
I0
sI239
I0
sI240
I0
sI241
I0
sI242
I0
sI243
I0
sI244
I0
sI245
I0
sI246
I0
sI247
I0
sI248
I0
sI249
I1
sI250
I0
sI251
I0
sI252
I0
sI253
I0
sI254
I0
sI255
I0
ssI52
(dp56
I0
I3
sI1
I1
sI2
I2
sI3
I3
sI4
I3
sI5
I1
sI6
I2
sI7
I0
sI8
I1
sI9
I3
sI10
I1
sI11
I3
sI12
I1
sI13
I3
sI14
I0
sI15
I3
sI16
I1
sI17
I1
sI18
I3
sI19
I2
sI20
I1
sI21
I1
sI22
I3
sI23
I1
sI24
I3
sI25
I2
sI26
I3
sI27
I1
sI28
I0
sI29
I2
sI30
I2
sI31
I2
sI32
I1
sI33
I3
sI34
I3
sI35
I1
sI36
I2
sI37
I3
sI38
I1
sI39
I2
sI40
I1
sI41
I0
sI42
I3
sI43
I1
sI44
I0
sI45
I2
sI46
I2
sI47
I3
sI48
I3
sI49
I0
sI50
I1
sI51
I1
sI52
I1
sI53
I1
sI54
I3
sI55
I3
sI56
I1
sI57
I2
sI58
I1
sI59
I2
sI60
I1
sI61
I3
sI62
I2
sI63
I3
sI64
I1
sI65
I1
sI66
I1
sI67
I2
sI68
I3
sI69
I3
sI70
I1
sI71
I3
sI72
I1
sI73
I2
sI74
I3
sI75
I1
sI76
I2
sI77
I1
sI78
I1
sI79
I3
sI80
I1
sI81
I1
sI82
I2
sI83
I1
sI84
I2
sI85
I1
sI86
I1
sI87
I3
sI88
I1
sI89
I1
sI90
I1
sI91
I1
sI92
I1
sI93
I1
sI94
I3
sI95
I1
sI96
I1
sI97
I2
sI98
I1
sI99
I1
sI100
I1
sI101
I3
sI102
I1
sI103
I2
sI104
I1
sI105
I1
sI106
I1
sI107
I1
sI108
I1
sI109
I1
sI110
I2
sI111
I1
sI112
I1
sI113
I1
sI114
I1
sI115
I3
sI116
I3
sI117
I2
sI118
I3
sI119
I1
sI120
I1
sI121
I1
sI122
I3
sI123
I1
sI124
I1
sI125
I3
sI126
I1
sI127
I1
sI128
I1
sI129
I3
sI130
I1
sI131
I3
sI132
I3
sI133
I2
sI134
I1
sI135
I3
sI136
I1
sI137
I1
sI138
I1
sI139
I0
sI140
I1
sI141
I1
sI142
I0
sI143
I3
sI144
I1
sI145
I2
sI146
I1
sI147
I3
sI148
I2
sI149
I3
sI150
I1
sI151
I3
sI152
I1
sI153
I2
sI154
I1
sI155
I1
sI156
I1
sI157
I3
sI158
I3
sI159
I1
sI160
I2
sI161
I1
sI162
I3
sI163
I2
sI164
I1
sI165
I1
sI166
I1
sI167
I3
sI168
I2
sI169
I1
sI170
I1
sI171
I1
sI172
I3
sI173
I2
sI174
I1
sI175
I1
sI176
I1
sI177
I1
sI178
I3
sI179
I1
sI180
I3
sI181
I1
sI182
I1
sI183
I3
sI184
I3
sI185
I1
sI186
I1
sI187
I1
sI188
I3
sI189
I3
sI190
I1
sI191
I1
sI192
I1
sI193
I3
sI194
I1
sI195
I1
sI196
I1
sI197
I1
sI198
I1
sI199
I1
sI200
I2
sI201
I2
sI202
I3
sI203
I2
sI204
I2
sI205
I2
sI206
I2
sI207
I2
sI208
I2
sI209
I2
sI210
I2
sI211
I0
sI212
I2
sI213
I2
sI214
I2
sI215
I2
sI216
I1
sI217
I1
sI218
I3
sI219
I1
sI220
I2
sI221
I3
sI222
I1
sI223
I1
sI224
I1
sI225
I1
sI226
I1
sI227
I1
sI228
I1
sI229
I0
sI230
I2
sI231
I2
sI232
I1
sI233
I1
sI234
I3
sI235
I3
sI236
I1
sI237
I1
sI238
I1
sI239
I1
sI240
I2
sI241
I1
sI242
I2
sI243
I3
sI244
I3
sI245
I1
sI246
I1
sI247
I1
sI248
I3
sI249
I2
sI250
I1
sI251
I3
sI252
I1
sI253
I1
sI254
I2
sI255
I1
ssI53
(dp57
I0
I0
sI1
I3
sI2
I1
sI3
I0
sI4
I3
sI5
I2
sI6
I0
sI7
I2
sI8
I3
sI9
I0
sI10
I2
sI11
I2
sI12
I2
sI13
I2
sI14
I1
sI15
I2
sI16
I2
sI17
I3
sI18
I3
sI19
I2
sI20
I2
sI21
I0
sI22
I0
sI23
I2
sI24
I1
sI25
I2
sI26
I2
sI27
I1
sI28
I2
sI29
I0
sI30
I2
sI31
I2
sI32
I2
sI33
I3
sI34
I3
sI35
I2
sI36
I2
sI37
I2
sI38
I0
sI39
I2
sI40
I2
sI41
I2
sI42
I2
sI43
I2
sI44
I2
sI45
I3
sI46
I2
sI47
I2
sI48
I2
sI49
I2
sI50
I2
sI51
I3
sI52
I1
sI53
I2
sI54
I2
sI55
I2
sI56
I2
sI57
I2
sI58
I2
sI59
I1
sI60
I2
sI61
I2
sI62
I2
sI63
I1
sI64
I2
sI65
I0
sI66
I2
sI67
I3
sI68
I3
sI69
I2
sI70
I0
sI71
I2
sI72
I2
sI73
I2
sI74
I3
sI75
I2
sI76
I2
sI77
I0
sI78
I2
sI79
I2
sI80
I2
sI81
I2
sI82
I0
sI83
I0
sI84
I2
sI85
I2
sI86
I0
sI87
I1
sI88
I2
sI89
I3
sI90
I2
sI91
I1
sI92
I1
sI93
I2
sI94
I3
sI95
I2
sI96
I3
sI97
I2
sI98
I3
sI99
I1
sI100
I2
sI101
I2
sI102
I2
sI103
I1
sI104
I1
sI105
I2
sI106
I2
sI107
I2
sI108
I2
sI109
I3
sI110
I2
sI111
I2
sI112
I2
sI113
I1
sI114
I0
sI115
I2
sI116
I0
sI117
I0
sI118
I2
sI119
I2
sI120
I2
sI121
I2
sI122
I0
sI123
I0
sI124
I2
sI125
I0
sI126
I2
sI127
I3
sI128
I0
sI129
I1
sI130
I2
sI131
I2
sI132
I3
sI133
I2
sI134
I1
sI135
I3
sI136
I2
sI137
I2
sI138
I2
sI139
I3
sI140
I1
sI141
I2
sI142
I2
sI143
I2
sI144
I1
sI145
I1
sI146
I2
sI147
I2
sI148
I2
sI149
I2
sI150
I3
sI151
I2
sI152
I2
sI153
I0
sI154
I2
sI155
I0
sI156
I2
sI157
I2
sI158
I2
sI159
I2
sI160
I2
sI161
I0
sI162
I2
sI163
I2
sI164
I2
sI165
I2
sI166
I2
sI167
I2
sI168
I3
sI169
I2
sI170
I1
sI171
I2
sI172
I2
sI173
I2
sI174
I1
sI175
I2
sI176
I2
sI177
I2
sI178
I2
sI179
I2
sI180
I0
sI181
I3
sI182
I2
sI183
I2
sI184
I2
sI185
I3
sI186
I2
sI187
I1
sI188
I2
sI189
I2
sI190
I2
sI191
I2
sI192
I3
sI193
I3
sI194
I0
sI195
I2
sI196
I2
sI197
I0
sI198
I2
sI199
I2
sI200
I1
sI201
I3
sI202
I1
sI203
I3
sI204
I0
sI205
I0
sI206
I3
sI207
I3
sI208
I3
sI209
I1
sI210
I3
sI211
I1
sI212
I0
sI213
I3
sI214
I3
sI215
I1
sI216
I2
sI217
I3
sI218
I0
sI219
I0
sI220
I2
sI221
I2
sI222
I2
sI223
I2
sI224
I1
sI225
I3
sI226
I0
sI227
I3
sI228
I2
sI229
I1
sI230
I1
sI231
I0
sI232
I3
sI233
I0
sI234
I2
sI235
I0
sI236
I1
sI237
I2
sI238
I2
sI239
I2
sI240
I1
sI241
I2
sI242
I0
sI243
I1
sI244
I2
sI245
I3
sI246
I1
sI247
I0
sI248
I2
sI249
I1
sI250
I0
sI251
I1
sI252
I2
sI253
I0
sI254
I2
sI255
I1
ssI54
(dp58
I0
I2
sI1
I2
sI2
I2
sI3
I0
sI4
I0
sI5
I2
sI6
I2
sI7
I1
sI8
I2
sI9
I2
sI10
I2
sI11
I2
sI12
I2
sI13
I2
sI14
I0
sI15
I2
sI16
I2
sI17
I2
sI18
I2
sI19
I0
sI20
I2
sI21
I2
sI22
I2
sI23
I2
sI24
I2
sI25
I0
sI26
I2
sI27
I2
sI28
I2
sI29
I2
sI30
I1
sI31
I2
sI32
I2
sI33
I2
sI34
I2
sI35
I2
sI36
I2
sI37
I2
sI38
I0
sI39
I0
sI40
I2
sI41
I2
sI42
I2
sI43
I2
sI44
I1
sI45
I2
sI46
I2
sI47
I1
sI48
I2
sI49
I2
sI50
I0
sI51
I2
sI52
I2
sI53
I0
sI54
I1
sI55
I2
sI56
I2
sI57
I1
sI58
I2
sI59
I2
sI60
I0
sI61
I0
sI62
I2
sI63
I0
sI64
I2
sI65
I0
sI66
I0
sI67
I2
sI68
I0
sI69
I0
sI70
I2
sI71
I2
sI72
I2
sI73
I2
sI74
I2
sI75
I2
sI76
I0
sI77
I2
sI78
I2
sI79
I2
sI80
I2
sI81
I2
sI82
I0
sI83
I2
sI84
I2
sI85
I0
sI86
I2
sI87
I2
sI88
I2
sI89
I0
sI90
I0
sI91
I2
sI92
I2
sI93
I0
sI94
I0
sI95
I2
sI96
I0
sI97
I2
sI98
I0
sI99
I2
sI100
I0
sI101
I2
sI102
I2
sI103
I0
sI104
I2
sI105
I0
sI106
I2
sI107
I2
sI108
I2
sI109
I2
sI110
I0
sI111
I2
sI112
I2
sI113
I0
sI114
I2
sI115
I2
sI116
I2
sI117
I2
sI118
I2
sI119
I0
sI120
I2
sI121
I2
sI122
I0
sI123
I2
sI124
I1
sI125
I0
sI126
I2
sI127
I0
sI128
I2
sI129
I2
sI130
I2
sI131
I0
sI132
I0
sI133
I1
sI134
I2
sI135
I2
sI136
I2
sI137
I1
sI138
I2
sI139
I2
sI140
I2
sI141
I0
sI142
I0
sI143
I2
sI144
I0
sI145
I2
sI146
I0
sI147
I2
sI148
I2
sI149
I2
sI150
I2
sI151
I2
sI152
I0
sI153
I2
sI154
I2
sI155
I2
sI156
I2
sI157
I0
sI158
I2
sI159
I0
sI160
I2
sI161
I0
sI162
I0
sI163
I2
sI164
I1
sI165
I0
sI166
I0
sI167
I2
sI168
I2
sI169
I2
sI170
I2
sI171
I2
sI172
I0
sI173
I0
sI174
I2
sI175
I2
sI176
I0
sI177
I0
sI178
I2
sI179
I2
sI180
I2
sI181
I2
sI182
I2
sI183
I2
sI184
I2
sI185
I2
sI186
I0
sI187
I0
sI188
I0
sI189
I2
sI190
I2
sI191
I2
sI192
I2
sI193
I0
sI194
I2
sI195
I2
sI196
I2
sI197
I2
sI198
I2
sI199
I2
sI200
I2
sI201
I1
sI202
I1
sI203
I1
sI204
I0
sI205
I0
sI206
I1
sI207
I1
sI208
I1
sI209
I1
sI210
I1
sI211
I2
sI212
I1
sI213
I0
sI214
I2
sI215
I1
sI216
I2
sI217
I0
sI218
I2
sI219
I2
sI220
I2
sI221
I2
sI222
I2
sI223
I0
sI224
I2
sI225
I1
sI226
I2
sI227
I0
sI228
I2
sI229
I1
sI230
I1
sI231
I2
sI232
I0
sI233
I2
sI234
I2
sI235
I2
sI236
I2
sI237
I2
sI238
I2
sI239
I0
sI240
I0
sI241
I2
sI242
I2
sI243
I2
sI244
I2
sI245
I2
sI246
I2
sI247
I2
sI248
I0
sI249
I1
sI250
I0
sI251
I2
sI252
I2
sI253
I2
sI254
I1
sI255
I2
ssI55
(dp59
I0
I0
sI1
I0
sI2
I2
sI3
I0
sI4
I0
sI5
I0
sI6
I1
sI7
I2
sI8
I1
sI9
I0
sI10
I1
sI11
I0
sI12
I0
sI13
I0
sI14
I0
sI15
I1
sI16
I0
sI17
I0
sI18
I0
sI19
I0
sI20
I0
sI21
I0
sI22
I3
sI23
I0
sI24
I3
sI25
I0
sI26
I0
sI27
I1
sI28
I0
sI29
I1
sI30
I2
sI31
I3
sI32
I0
sI33
I0
sI34
I0
sI35
I0
sI36
I0
sI37
I2
sI38
I3
sI39
I0
sI40
I0
sI41
I0
sI42
I1
sI43
I1
sI44
I0
sI45
I3
sI46
I1
sI47
I3
sI48
I0
sI49
I0
sI50
I0
sI51
I0
sI52
I0
sI53
I2
sI54
I2
sI55
I0
sI56
I1
sI57
I3
sI58
I0
sI59
I0
sI60
I0
sI61
I2
sI62
I0
sI63
I3
sI64
I3
sI65
I0
sI66
I0
sI67
I0
sI68
I0
sI69
I0
sI70
I0
sI71
I0
sI72
I1
sI73
I0
sI74
I0
sI75
I0
sI76
I0
sI77
I0
sI78
I0
sI79
I0
sI80
I0
sI81
I1
sI82
I0
sI83
I0
sI84
I0
sI85
I0
sI86
I0
sI87
I0
sI88
I0
sI89
I0
sI90
I0
sI91
I0
sI92
I0
sI93
I0
sI94
I0
sI95
I3
sI96
I0
sI97
I1
sI98
I0
sI99
I0
sI100
I0
sI101
I0
sI102
I1
sI103
I0
sI104
I0
sI105
I0
sI106
I0
sI107
I0
sI108
I0
sI109
I3
sI110
I0
sI111
I0
sI112
I0
sI113
I0
sI114
I0
sI115
I0
sI116
I3
sI117
I1
sI118
I0
sI119
I0
sI120
I0
sI121
I0
sI122
I0
sI123
I1
sI124
I1
sI125
I3
sI126
I0
sI127
I3
sI128
I0
sI129
I1
sI130
I1
sI131
I0
sI132
I0
sI133
I1
sI134
I3
sI135
I0
sI136
I1
sI137
I2
sI138
I0
sI139
I3
sI140
I0
sI141
I0
sI142
I0
sI143
I0
sI144
I0
sI145
I1
sI146
I0
sI147
I1
sI148
I2
sI149
I1
sI150
I1
sI151
I0
sI152
I0
sI153
I3
sI154
I0
sI155
I0
sI156
I0
sI157
I1
sI158
I0
sI159
I0
sI160
I0
sI161
I1
sI162
I0
sI163
I1
sI164
I2
sI165
I0
sI166
I3
sI167
I0
sI168
I0
sI169
I0
sI170
I0
sI171
I0
sI172
I1
sI173
I1
sI174
I0
sI175
I0
sI176
I0
sI177
I0
sI178
I1
sI179
I2
sI180
I0
sI181
I3
sI182
I0
sI183
I0
sI184
I1
sI185
I1
sI186
I0
sI187
I0
sI188
I0
sI189
I0
sI190
I2
sI191
I0
sI192
I0
sI193
I1
sI194
I1
sI195
I0
sI196
I1
sI197
I0
sI198
I0
sI199
I2
sI200
I3
sI201
I3
sI202
I3
sI203
I3
sI204
I3
sI205
I3
sI206
I3
sI207
I3
sI208
I3
sI209
I0
sI210
I3
sI211
I3
sI212
I3
sI213
I3
sI214
I3
sI215
I0
sI216
I0
sI217
I0
sI218
I0
sI219
I1
sI220
I0
sI221
I0
sI222
I1
sI223
I3
sI224
I0
sI225
I0
sI226
I0
sI227
I0
sI228
I0
sI229
I0
sI230
I0
sI231
I0
sI232
I0
sI233
I1
sI234
I1
sI235
I0
sI236
I0
sI237
I0
sI238
I0
sI239
I0
sI240
I1
sI241
I3
sI242
I0
sI243
I0
sI244
I0
sI245
I1
sI246
I0
sI247
I0
sI248
I1
sI249
I2
sI250
I0
sI251
I0
sI252
I1
sI253
I1
sI254
I2
sI255
I1
ssI56
(dp60
I0
I2
sI1
I1
sI2
I0
sI3
I3
sI4
I0
sI5
I3
sI6
I3
sI7
I0
sI8
I3
sI9
I2
sI10
I0
sI11
I0
sI12
I1
sI13
I3
sI14
I0
sI15
I0
sI16
I0
sI17
I2
sI18
I3
sI19
I0
sI20
I2
sI21
I3
sI22
I0
sI23
I3
sI24
I1
sI25
I3
sI26
I2
sI27
I0
sI28
I3
sI29
I1
sI30
I0
sI31
I3
sI32
I3
sI33
I1
sI34
I0
sI35
I0
sI36
I0
sI37
I3
sI38
I2
sI39
I3
sI40
I0
sI41
I2
sI42
I0
sI43
I0
sI44
I0
sI45
I1
sI46
I0
sI47
I0
sI48
I0
sI49
I3
sI50
I0
sI51
I0
sI52
I3
sI53
I3
sI54
I1
sI55
I0
sI56
I0
sI57
I3
sI58
I3
sI59
I0
sI60
I0
sI61
I0
sI62
I0
sI63
I3
sI64
I1
sI65
I3
sI66
I0
sI67
I1
sI68
I0
sI69
I0
sI70
I0
sI71
I0
sI72
I1
sI73
I3
sI74
I2
sI75
I1
sI76
I2
sI77
I3
sI78
I0
sI79
I3
sI80
I0
sI81
I0
sI82
I3
sI83
I3
sI84
I0
sI85
I0
sI86
I1
sI87
I0
sI88
I3
sI89
I0
sI90
I0
sI91
I0
sI92
I2
sI93
I3
sI94
I0
sI95
I0
sI96
I0
sI97
I0
sI98
I0
sI99
I1
sI100
I2
sI101
I1
sI102
I0
sI103
I3
sI104
I0
sI105
I0
sI106
I1
sI107
I0
sI108
I0
sI109
I0
sI110
I0
sI111
I2
sI112
I3
sI113
I3
sI114
I2
sI115
I0
sI116
I1
sI117
I0
sI118
I3
sI119
I0
sI120
I0
sI121
I0
sI122
I0
sI123
I0
sI124
I1
sI125
I3
sI126
I0
sI127
I2
sI128
I0
sI129
I2
sI130
I3
sI131
I2
sI132
I2
sI133
I2
sI134
I2
sI135
I0
sI136
I2
sI137
I0
sI138
I2
sI139
I3
sI140
I3
sI141
I0
sI142
I1
sI143
I0
sI144
I0
sI145
I3
sI146
I3
sI147
I3
sI148
I3
sI149
I0
sI150
I0
sI151
I0
sI152
I3
sI153
I3
sI154
I0
sI155
I3
sI156
I0
sI157
I0
sI158
I0
sI159
I0
sI160
I3
sI161
I0
sI162
I0
sI163
I0
sI164
I0
sI165
I3
sI166
I1
sI167
I0
sI168
I0
sI169
I1
sI170
I0
sI171
I2
sI172
I3
sI173
I0
sI174
I2
sI175
I0
sI176
I2
sI177
I3
sI178
I3
sI179
I0
sI180
I1
sI181
I3
sI182
I3
sI183
I0
sI184
I0
sI185
I3
sI186
I3
sI187
I2
sI188
I0
sI189
I0
sI190
I0
sI191
I1
sI192
I0
sI193
I0
sI194
I0
sI195
I2
sI196
I0
sI197
I0
sI198
I3
sI199
I3
sI200
I2
sI201
I3
sI202
I3
sI203
I3
sI204
I3
sI205
I2
sI206
I2
sI207
I2
sI208
I2
sI209
I3
sI210
I3
sI211
I3
sI212
I1
sI213
I3
sI214
I2
sI215
I3
sI216
I0
sI217
I3
sI218
I3
sI219
I0
sI220
I1
sI221
I3
sI222
I0
sI223
I2
sI224
I2
sI225
I0
sI226
I0
sI227
I0
sI228
I0
sI229
I0
sI230
I3
sI231
I1
sI232
I0
sI233
I0
sI234
I3
sI235
I0
sI236
I0
sI237
I2
sI238
I0
sI239
I0
sI240
I0
sI241
I0
sI242
I0
sI243
I1
sI244
I0
sI245
I1
sI246
I0
sI247
I0
sI248
I3
sI249
I1
sI250
I0
sI251
I1
sI252
I0
sI253
I2
sI254
I0
sI255
I0
ssI57
(dp61
I0
I0
sI1
I2
sI2
I0
sI3
I2
sI4
I2
sI5
I1
sI6
I2
sI7
I1
sI8
I2
sI9
I2
sI10
I1
sI11
I2
sI12
I2
sI13
I2
sI14
I2
sI15
I2
sI16
I2
sI17
I0
sI18
I2
sI19
I0
sI20
I2
sI21
I2
sI22
I2
sI23
I2
sI24
I1
sI25
I2
sI26
I2
sI27
I2
sI28
I2
sI29
I2
sI30
I2
sI31
I2
sI32
I2
sI33
I1
sI34
I2
sI35
I2
sI36
I1
sI37
I2
sI38
I2
sI39
I2
sI40
I2
sI41
I2
sI42
I0
sI43
I0
sI44
I0
sI45
I2
sI46
I2
sI47
I2
sI48
I2
sI49
I2
sI50
I2
sI51
I2
sI52
I2
sI53
I2
sI54
I2
sI55
I2
sI56
I2
sI57
I1
sI58
I0
sI59
I2
sI60
I2
sI61
I2
sI62
I0
sI63
I0
sI64
I2
sI65
I2
sI66
I2
sI67
I2
sI68
I2
sI69
I2
sI70
I2
sI71
I2
sI72
I0
sI73
I2
sI74
I2
sI75
I2
sI76
I0
sI77
I2
sI78
I2
sI79
I0
sI80
I2
sI81
I2
sI82
I2
sI83
I2
sI84
I0
sI85
I2
sI86
I0
sI87
I0
sI88
I2
sI89
I2
sI90
I2
sI91
I2
sI92
I2
sI93
I2
sI94
I2
sI95
I2
sI96
I2
sI97
I2
sI98
I2
sI99
I0
sI100
I0
sI101
I2
sI102
I0
sI103
I2
sI104
I2
sI105
I2
sI106
I2
sI107
I2
sI108
I2
sI109
I2
sI110
I2
sI111
I2
sI112
I2
sI113
I0
sI114
I0
sI115
I2
sI116
I2
sI117
I2
sI118
I2
sI119
I2
sI120
I2
sI121
I2
sI122
I2
sI123
I0
sI124
I0
sI125
I2
sI126
I2
sI127
I2
sI128
I2
sI129
I2
sI130
I0
sI131
I0
sI132
I0
sI133
I2
sI134
I2
sI135
I2
sI136
I2
sI137
I0
sI138
I2
sI139
I2
sI140
I2
sI141
I2
sI142
I0
sI143
I2
sI144
I0
sI145
I0
sI146
I2
sI147
I0
sI148
I0
sI149
I2
sI150
I0
sI151
I2
sI152
I2
sI153
I2
sI154
I0
sI155
I2
sI156
I0
sI157
I2
sI158
I2
sI159
I2
sI160
I0
sI161
I0
sI162
I2
sI163
I2
sI164
I2
sI165
I2
sI166
I2
sI167
I2
sI168
I1
sI169
I0
sI170
I2
sI171
I2
sI172
I2
sI173
I2
sI174
I0
sI175
I2
sI176
I0
sI177
I2
sI178
I2
sI179
I1
sI180
I1
sI181
I2
sI182
I2
sI183
I2
sI184
I2
sI185
I2
sI186
I2
sI187
I0
sI188
I2
sI189
I2
sI190
I0
sI191
I2
sI192
I2
sI193
I2
sI194
I2
sI195
I0
sI196
I2
sI197
I2
sI198
I2
sI199
I2
sI200
I1
sI201
I1
sI202
I1
sI203
I1
sI204
I1
sI205
I1
sI206
I1
sI207
I1
sI208
I1
sI209
I1
sI210
I2
sI211
I2
sI212
I1
sI213
I1
sI214
I1
sI215
I1
sI216
I0
sI217
I2
sI218
I0
sI219
I0
sI220
I2
sI221
I2
sI222
I2
sI223
I1
sI224
I2
sI225
I2
sI226
I0
sI227
I2
sI228
I2
sI229
I2
sI230
I2
sI231
I2
sI232
I2
sI233
I2
sI234
I2
sI235
I2
sI236
I2
sI237
I2
sI238
I2
sI239
I0
sI240
I1
sI241
I0
sI242
I2
sI243
I2
sI244
I1
sI245
I2
sI246
I2
sI247
I2
sI248
I2
sI249
I2
sI250
I2
sI251
I0
sI252
I2
sI253
I0
sI254
I2
sI255
I0
ssI58
(dp62
I0
I1
sI1
I2
sI2
I0
sI3
I2
sI4
I2
sI5
I0
sI6
I0
sI7
I2
sI8
I1
sI9
I1
sI10
I2
sI11
I1
sI12
I0
sI13
I1
sI14
I0
sI15
I1
sI16
I0
sI17
I0
sI18
I1
sI19
I1
sI20
I0
sI21
I1
sI22
I0
sI23
I2
sI24
I2
sI25
I1
sI26
I1
sI27
I1
sI28
I0
sI29
I2
sI30
I0
sI31
I2
sI32
I2
sI33
I0
sI34
I1
sI35
I1
sI36
I2
sI37
I1
sI38
I2
sI39
I0
sI40
I0
sI41
I0
sI42
I1
sI43
I1
sI44
I1
sI45
I0
sI46
I1
sI47
I1
sI48
I2
sI49
I0
sI50
I1
sI51
I1
sI52
I2
sI53
I1
sI54
I2
sI55
I1
sI56
I0
sI57
I1
sI58
I0
sI59
I1
sI60
I1
sI61
I2
sI62
I1
sI63
I1
sI64
I2
sI65
I1
sI66
I1
sI67
I2
sI68
I0
sI69
I0
sI70
I2
sI71
I0
sI72
I2
sI73
I0
sI74
I1
sI75
I1
sI76
I0
sI77
I2
sI78
I1
sI79
I1
sI80
I1
sI81
I1
sI82
I1
sI83
I1
sI84
I1
sI85
I1
sI86
I1
sI87
I1
sI88
I0
sI89
I1
sI90
I1
sI91
I2
sI92
I1
sI93
I1
sI94
I1
sI95
I1
sI96
I1
sI97
I1
sI98
I0
sI99
I1
sI100
I1
sI101
I1
sI102
I0
sI103
I1
sI104
I1
sI105
I0
sI106
I1
sI107
I1
sI108
I1
sI109
I1
sI110
I1
sI111
I1
sI112
I0
sI113
I0
sI114
I1
sI115
I1
sI116
I1
sI117
I1
sI118
I1
sI119
I1
sI120
I2
sI121
I2
sI122
I0
sI123
I1
sI124
I0
sI125
I2
sI126
I1
sI127
I1
sI128
I0
sI129
I0
sI130
I0
sI131
I1
sI132
I1
sI133
I1
sI134
I0
sI135
I2
sI136
I0
sI137
I1
sI138
I1
sI139
I0
sI140
I2
sI141
I0
sI142
I1
sI143
I0
sI144
I2
sI145
I1
sI146
I1
sI147
I1
sI148
I1
sI149
I1
sI150
I1
sI151
I1
sI152
I0
sI153
I1
sI154
I1
sI155
I1
sI156
I2
sI157
I0
sI158
I1
sI159
I1
sI160
I1
sI161
I1
sI162
I1
sI163
I0
sI164
I1
sI165
I0
sI166
I1
sI167
I1
sI168
I0
sI169
I2
sI170
I1
sI171
I1
sI172
I1
sI173
I0
sI174
I2
sI175
I1
sI176
I1
sI177
I1
sI178
I2
sI179
I1
sI180
I1
sI181
I1
sI182
I1
sI183
I0
sI184
I1
sI185
I2
sI186
I0
sI187
I1
sI188
I1
sI189
I1
sI190
I1
sI191
I0
sI192
I1
sI193
I1
sI194
I1
sI195
I1
sI196
I1
sI197
I2
sI198
I1
sI199
I1
sI200
I0
sI201
I2
sI202
I1
sI203
I1
sI204
I1
sI205
I2
sI206
I2
sI207
I2
sI208
I0
sI209
I1
sI210
I1
sI211
I2
sI212
I1
sI213
I1
sI214
I2
sI215
I0
sI216
I1
sI217
I2
sI218
I0
sI219
I1
sI220
I1
sI221
I1
sI222
I0
sI223
I2
sI224
I2
sI225
I1
sI226
I1
sI227
I1
sI228
I2
sI229
I1
sI230
I1
sI231
I2
sI232
I1
sI233
I1
sI234
I1
sI235
I1
sI236
I1
sI237
I1
sI238
I1
sI239
I1
sI240
I2
sI241
I2
sI242
I0
sI243
I1
sI244
I0
sI245
I0
sI246
I1
sI247
I2
sI248
I1
sI249
I2
sI250
I1
sI251
I2
sI252
I1
sI253
I1
sI254
I2
sI255
I0
ssI59
(dp63
I0
I1
sI1
I0
sI2
I0
sI3
I1
sI4
I0
sI5
I0
sI6
I0
sI7
I0
sI8
I1
sI9
I1
sI10
I0
sI11
I0
sI12
I0
sI13
I1
sI14
I0
sI15
I0
sI16
I0
sI17
I1
sI18
I0
sI19
I1
sI20
I1
sI21
I1
sI22
I0
sI23
I1
sI24
I0
sI25
I0
sI26
I1
sI27
I1
sI28
I0
sI29
I0
sI30
I0
sI31
I0
sI32
I0
sI33
I0
sI34
I0
sI35
I1
sI36
I0
sI37
I0
sI38
I0
sI39
I1
sI40
I1
sI41
I0
sI42
I1
sI43
I0
sI44
I0
sI45
I0
sI46
I0
sI47
I0
sI48
I1
sI49
I0
sI50
I1
sI51
I0
sI52
I0
sI53
I1
sI54
I1
sI55
I1
sI56
I1
sI57
I0
sI58
I0
sI59
I0
sI60
I0
sI61
I0
sI62
I0
sI63
I0
sI64
I0
sI65
I0
sI66
I0
sI67
I0
sI68
I0
sI69
I1
sI70
I0
sI71
I1
sI72
I1
sI73
I0
sI74
I1
sI75
I0
sI76
I1
sI77
I1
sI78
I0
sI79
I0
sI80
I0
sI81
I0
sI82
I0
sI83
I1
sI84
I1
sI85
I0
sI86
I1
sI87
I0
sI88
I1
sI89
I1
sI90
I1
sI91
I0
sI92
I1
sI93
I0
sI94
I1
sI95
I0
sI96
I0
sI97
I0
sI98
I0
sI99
I0
sI100
I0
sI101
I0
sI102
I0
sI103
I0
sI104
I0
sI105
I0
sI106
I1
sI107
I1
sI108
I0
sI109
I0
sI110
I0
sI111
I1
sI112
I0
sI113
I0
sI114
I1
sI115
I1
sI116
I0
sI117
I1
sI118
I0
sI119
I1
sI120
I1
sI121
I0
sI122
I0
sI123
I0
sI124
I0
sI125
I0
sI126
I0
sI127
I0
sI128
I0
sI129
I0
sI130
I1
sI131
I0
sI132
I0
sI133
I1
sI134
I0
sI135
I0
sI136
I0
sI137
I1
sI138
I0
sI139
I0
sI140
I0
sI141
I1
sI142
I1
sI143
I1
sI144
I0
sI145
I1
sI146
I0
sI147
I0
sI148
I0
sI149
I0
sI150
I1
sI151
I1
sI152
I0
sI153
I1
sI154
I1
sI155
I1
sI156
I1
sI157
I0
sI158
I1
sI159
I0
sI160
I1
sI161
I0
sI162
I0
sI163
I0
sI164
I1
sI165
I1
sI166
I0
sI167
I1
sI168
I1
sI169
I1
sI170
I0
sI171
I0
sI172
I1
sI173
I0
sI174
I0
sI175
I0
sI176
I0
sI177
I0
sI178
I0
sI179
I0
sI180
I0
sI181
I0
sI182
I0
sI183
I1
sI184
I1
sI185
I0
sI186
I1
sI187
I1
sI188
I0
sI189
I0
sI190
I1
sI191
I1
sI192
I1
sI193
I0
sI194
I0
sI195
I0
sI196
I1
sI197
I1
sI198
I0
sI199
I0
sI200
I0
sI201
I1
sI202
I0
sI203
I1
sI204
I1
sI205
I1
sI206
I0
sI207
I0
sI208
I0
sI209
I0
sI210
I1
sI211
I0
sI212
I0
sI213
I0
sI214
I1
sI215
I1
sI216
I0
sI217
I1
sI218
I1
sI219
I0
sI220
I0
sI221
I0
sI222
I0
sI223
I1
sI224
I0
sI225
I1
sI226
I0
sI227
I0
sI228
I0
sI229
I0
sI230
I0
sI231
I1
sI232
I0
sI233
I0
sI234
I0
sI235
I0
sI236
I0
sI237
I0
sI238
I1
sI239
I0
sI240
I1
sI241
I0
sI242
I0
sI243
I0
sI244
I1
sI245
I0
sI246
I0
sI247
I1
sI248
I0
sI249
I0
sI250
I0
sI251
I0
sI252
I1
sI253
I1
sI254
I0
sI255
I1
ssI60
(dp64
I0
I1
sI1
I0
sI2
I0
sI3
I0
sI4
I0
sI5
I2
sI6
I1
sI7
I0
sI8
I0
sI9
I0
sI10
I0
sI11
I2
sI12
I0
sI13
I0
sI14
I0
sI15
I1
sI16
I1
sI17
I0
sI18
I0
sI19
I0
sI20
I0
sI21
I0
sI22
I2
sI23
I0
sI24
I0
sI25
I2
sI26
I0
sI27
I0
sI28
I0
sI29
I0
sI30
I1
sI31
I0
sI32
I0
sI33
I2
sI34
I0
sI35
I2
sI36
I2
sI37
I0
sI38
I0
sI39
I0
sI40
I2
sI41
I0
sI42
I2
sI43
I2
sI44
I2
sI45
I0
sI46
I0
sI47
I0
sI48
I2
sI49
I0
sI50
I1
sI51
I1
sI52
I0
sI53
I0
sI54
I1
sI55
I1
sI56
I0
sI57
I0
sI58
I0
sI59
I0
sI60
I0
sI61
I0
sI62
I1
sI63
I2
sI64
I0
sI65
I2
sI66
I0
sI67
I2
sI68
I0
sI69
I2
sI70
I0
sI71
I0
sI72
I1
sI73
I0
sI74
I0
sI75
I0
sI76
I2
sI77
I0
sI78
I1
sI79
I2
sI80
I2
sI81
I2
sI82
I0
sI83
I0
sI84
I1
sI85
I1
sI86
I0
sI87
I2
sI88
I0
sI89
I1
sI90
I0
sI91
I2
sI92
I0
sI93
I2
sI94
I0
sI95
I2
sI96
I2
sI97
I2
sI98
I0
sI99
I2
sI100
I2
sI101
I0
sI102
I0
sI103
I1
sI104
I0
sI105
I2
sI106
I2
sI107
I0
sI108
I0
sI109
I1
sI110
I1
sI111
I2
sI112
I0
sI113
I2
sI114
I2
sI115
I0
sI116
I2
sI117
I0
sI118
I0
sI119
I0
sI120
I2
sI121
I0
sI122
I0
sI123
I0
sI124
I0
sI125
I0
sI126
I2
sI127
I0
sI128
I0
sI129
I0
sI130
I1
sI131
I2
sI132
I0
sI133
I0
sI134
I0
sI135
I2
sI136
I1
sI137
I0
sI138
I2
sI139
I0
sI140
I2
sI141
I0
sI142
I1
sI143
I0
sI144
I0
sI145
I0
sI146
I0
sI147
I2
sI148
I0
sI149
I2
sI150
I2
sI151
I0
sI152
I0
sI153
I0
sI154
I0
sI155
I0
sI156
I0
sI157
I0
sI158
I0
sI159
I0
sI160
I2
sI161
I2
sI162
I2
sI163
I1
sI164
I2
sI165
I0
sI166
I0
sI167
I0
sI168
I0
sI169
I0
sI170
I0
sI171
I0
sI172
I1
sI173
I0
sI174
I0
sI175
I0
sI176
I0
sI177
I0
sI178
I0
sI179
I0
sI180
I0
sI181
I1
sI182
I2
sI183
I2
sI184
I0
sI185
I0
sI186
I1
sI187
I2
sI188
I1
sI189
I1
sI190
I2
sI191
I0
sI192
I0
sI193
I2
sI194
I2
sI195
I0
sI196
I2
sI197
I2
sI198
I0
sI199
I0
sI200
I1
sI201
I2
sI202
I0
sI203
I2
sI204
I2
sI205
I2
sI206
I2
sI207
I0
sI208
I0
sI209
I1
sI210
I0
sI211
I2
sI212
I1
sI213
I2
sI214
I0
sI215
I0
sI216
I0
sI217
I2
sI218
I0
sI219
I2
sI220
I0
sI221
I0
sI222
I0
sI223
I2
sI224
I0
sI225
I2
sI226
I0
sI227
I2
sI228
I0
sI229
I0
sI230
I0
sI231
I1
sI232
I2
sI233
I0
sI234
I0
sI235
I0
sI236
I0
sI237
I0
sI238
I1
sI239
I0
sI240
I0
sI241
I0
sI242
I2
sI243
I2
sI244
I1
sI245
I2
sI246
I0
sI247
I0
sI248
I0
sI249
I0
sI250
I0
sI251
I1
sI252
I0
sI253
I1
sI254
I2
sI255
I0
ssI61
(dp65
I0
I2
sI1
I1
sI2
I1
sI3
I1
sI4
I1
sI5
I1
sI6
I1
sI7
I0
sI8
I1
sI9
I2
sI10
I1
sI11
I1
sI12
I2
sI13
I2
sI14
I0
sI15
I1
sI16
I1
sI17
I1
sI18
I1
sI19
I1
sI20
I1
sI21
I1
sI22
I1
sI23
I1
sI24
I1
sI25
I2
sI26
I1
sI27
I0
sI28
I1
sI29
I1
sI30
I1
sI31
I1
sI32
I1
sI33
I1
sI34
I2
sI35
I1
sI36
I2
sI37
I1
sI38
I2
sI39
I1
sI40
I1
sI41
I2
sI42
I1
sI43
I1
sI44
I1
sI45
I1
sI46
I1
sI47
I1
sI48
I1
sI49
I1
sI50
I1
sI51
I2
sI52
I1
sI53
I1
sI54
I0
sI55
I0
sI56
I1
sI57
I1
sI58
I2
sI59
I2
sI60
I1
sI61
I1
sI62
I1
sI63
I0
sI64
I1
sI65
I1
sI66
I1
sI67
I1
sI68
I2
sI69
I1
sI70
I1
sI71
I2
sI72
I1
sI73
I1
sI74
I1
sI75
I1
sI76
I1
sI77
I1
sI78
I2
sI79
I2
sI80
I2
sI81
I1
sI82
I1
sI83
I1
sI84
I1
sI85
I1
sI86
I1
sI87
I1
sI88
I1
sI89
I1
sI90
I0
sI91
I1
sI92
I1
sI93
I0
sI94
I1
sI95
I1
sI96
I1
sI97
I1
sI98
I1
sI99
I2
sI100
I1
sI101
I1
sI102
I1
sI103
I0
sI104
I1
sI105
I1
sI106
I2
sI107
I1
sI108
I1
sI109
I1
sI110
I0
sI111
I1
sI112
I1
sI113
I1
sI114
I1
sI115
I1
sI116
I0
sI117
I1
sI118
I1
sI119
I1
sI120
I1
sI121
I1
sI122
I1
sI123
I1
sI124
I1
sI125
I2
sI126
I1
sI127
I1
sI128
I1
sI129
I1
sI130
I1
sI131
I2
sI132
I1
sI133
I1
sI134
I1
sI135
I1
sI136
I1
sI137
I1
sI138
I0
sI139
I1
sI140
I1
sI141
I1
sI142
I1
sI143
I1
sI144
I1
sI145
I1
sI146
I1
sI147
I1
sI148
I1
sI149
I1
sI150
I1
sI151
I0
sI152
I1
sI153
I1
sI154
I1
sI155
I1
sI156
I0
sI157
I1
sI158
I2
sI159
I1
sI160
I1
sI161
I1
sI162
I1
sI163
I2
sI164
I2
sI165
I1
sI166
I0
sI167
I0
sI168
I1
sI169
I1
sI170
I1
sI171
I2
sI172
I1
sI173
I1
sI174
I1
sI175
I1
sI176
I1
sI177
I1
sI178
I1
sI179
I2
sI180
I1
sI181
I1
sI182
I1
sI183
I1
sI184
I1
sI185
I1
sI186
I1
sI187
I1
sI188
I1
sI189
I1
sI190
I0
sI191
I1
sI192
I1
sI193
I1
sI194
I1
sI195
I1
sI196
I1
sI197
I0
sI198
I2
sI199
I1
sI200
I1
sI201
I0
sI202
I1
sI203
I1
sI204
I0
sI205
I1
sI206
I1
sI207
I1
sI208
I1
sI209
I1
sI210
I1
sI211
I0
sI212
I1
sI213
I1
sI214
I1
sI215
I1
sI216
I1
sI217
I1
sI218
I1
sI219
I1
sI220
I1
sI221
I1
sI222
I1
sI223
I0
sI224
I2
sI225
I1
sI226
I1
sI227
I1
sI228
I1
sI229
I1
sI230
I1
sI231
I1
sI232
I1
sI233
I1
sI234
I1
sI235
I1
sI236
I0
sI237
I1
sI238
I1
sI239
I2
sI240
I1
sI241
I1
sI242
I1
sI243
I1
sI244
I1
sI245
I2
sI246
I1
sI247
I0
sI248
I1
sI249
I1
sI250
I0
sI251
I1
sI252
I1
sI253
I1
sI254
I1
sI255
I0
ssI62
(dp66
I0
I1
sI1
I1
sI2
I0
sI3
I2
sI4
I3
sI5
I2
sI6
I2
sI7
I2
sI8
I2
sI9
I1
sI10
I2
sI11
I2
sI12
I0
sI13
I2
sI14
I2
sI15
I1
sI16
I0
sI17
I2
sI18
I0
sI19
I2
sI20
I2
sI21
I2
sI22
I2
sI23
I3
sI24
I2
sI25
I3
sI26
I1
sI27
I1
sI28
I3
sI29
I1
sI30
I1
sI31
I2
sI32
I2
sI33
I1
sI34
I2
sI35
I2
sI36
I1
sI37
I2
sI38
I2
sI39
I2
sI40
I1
sI41
I1
sI42
I0
sI43
I1
sI44
I1
sI45
I2
sI46
I1
sI47
I1
sI48
I0
sI49
I1
sI50
I1
sI51
I1
sI52
I2
sI53
I0
sI54
I2
sI55
I2
sI56
I0
sI57
I2
sI58
I2
sI59
I2
sI60
I1
sI61
I2
sI62
I0
sI63
I1
sI64
I2
sI65
I2
sI66
I1
sI67
I2
sI68
I2
sI69
I2
sI70
I2
sI71
I2
sI72
I2
sI73
I2
sI74
I2
sI75
I1
sI76
I2
sI77
I2
sI78
I1
sI79
I2
sI80
I2
sI81
I2
sI82
I2
sI83
I2
sI84
I1
sI85
I1
sI86
I2
sI87
I2
sI88
I2
sI89
I2
sI90
I2
sI91
I1
sI92
I2
sI93
I3
sI94
I3
sI95
I2
sI96
I2
sI97
I2
sI98
I2
sI99
I1
sI100
I2
sI101
I2
sI102
I2
sI103
I2
sI104
I1
sI105
I2
sI106
I2
sI107
I2
sI108
I2
sI109
I1
sI110
I2
sI111
I3
sI112
I3
sI113
I3
sI114
I2
sI115
I2
sI116
I1
sI117
I2
sI118
I2
sI119
I2
sI120
I2
sI121
I2
sI122
I2
sI123
I2
sI124
I3
sI125
I1
sI126
I2
sI127
I2
sI128
I2
sI129
I3
sI130
I2
sI131
I2
sI132
I2
sI133
I0
sI134
I1
sI135
I2
sI136
I1
sI137
I2
sI138
I1
sI139
I2
sI140
I2
sI141
I2
sI142
I2
sI143
I3
sI144
I2
sI145
I2
sI146
I2
sI147
I0
sI148
I2
sI149
I2
sI150
I2
sI151
I2
sI152
I2
sI153
I0
sI154
I2
sI155
I2
sI156
I2
sI157
I2
sI158
I2
sI159
I1
sI160
I2
sI161
I3
sI162
I2
sI163
I2
sI164
I2
sI165
I2
sI166
I1
sI167
I0
sI168
I2
sI169
I2
sI170
I3
sI171
I2
sI172
I3
sI173
I2
sI174
I2
sI175
I2
sI176
I2
sI177
I2
sI178
I2
sI179
I1
sI180
I2
sI181
I2
sI182
I2
sI183
I3
sI184
I2
sI185
I2
sI186
I2
sI187
I2
sI188
I1
sI189
I2
sI190
I2
sI191
I2
sI192
I2
sI193
I2
sI194
I2
sI195
I2
sI196
I2
sI197
I2
sI198
I2
sI199
I2
sI200
I1
sI201
I0
sI202
I2
sI203
I0
sI204
I0
sI205
I2
sI206
I0
sI207
I2
sI208
I1
sI209
I2
sI210
I1
sI211
I0
sI212
I0
sI213
I0
sI214
I0
sI215
I2
sI216
I2
sI217
I3
sI218
I2
sI219
I2
sI220
I2
sI221
I2
sI222
I2
sI223
I2
sI224
I2
sI225
I2
sI226
I2
sI227
I2
sI228
I2
sI229
I2
sI230
I2
sI231
I1
sI232
I0
sI233
I3
sI234
I3
sI235
I2
sI236
I2
sI237
I3
sI238
I1
sI239
I2
sI240
I2
sI241
I2
sI242
I2
sI243
I1
sI244
I2
sI245
I2
sI246
I2
sI247
I2
sI248
I0
sI249
I2
sI250
I2
sI251
I2
sI252
I1
sI253
I1
sI254
I2
sI255
I2
ss.