(dp0
I0
(dp1
I0
I2
sI1
I2
sI2
I1
sI3
I1
sI4
I1
sI5
I0
sI6
I1
sI7
I2
sI8
I2
sI9
I0
sI10
I1
sI11
I1
sI12
I0
sI13
I0
sI14
I2
sI15
I1
sI16
I2
sI17
I0
sI18
I0
sI19
I0
sI20
I0
sI21
I1
sI22
I2
sI23
I1
sI24
I0
sI25
I2
sI26
I2
sI27
I2
sI28
I2
sI29
I2
sI30
I1
sI31
I0
sI32
I1
sI33
I2
sI34
I0
sI35
I1
sI36
I0
sI37
I1
sI38
I1
sI39
I0
sI40
I0
sI41
I2
sI42
I2
sI43
I0
sI44
I0
sI45
I2
sI46
I0
sI47
I2
sI48
I1
sI49
I2
sI50
I0
sI51
I0
sI52
I0
sI53
I2
ssI1
(dp2
I0
I1
sI1
I2
sI2
I1
sI3
I0
sI4
I2
sI5
I1
sI6
I2
sI7
I0
sI8
I2
sI9
I0
sI10
I1
sI11
I0
sI12
I2
sI13
I2
sI14
I1
sI15
I2
sI16
I1
sI17
I2
sI18
I2
sI19
I1
sI20
I1
sI21
I2
sI22
I1
sI23
I1
sI24
I2
sI25
I2
sI26
I0
sI27
I2
sI28
I1
sI29
I0
sI30
I0
sI31
I0
sI32
I1
sI33
I2
sI34
I2
sI35
I0
sI36
I0
sI37
I0
sI38
I0
sI39
I1
sI40
I0
sI41
I1
sI42
I1
sI43
I2
sI44
I0
sI45
I2
sI46
I1
sI47
I2
sI48
I1
sI49
I0
sI50
I2
sI51
I2
sI52
I2
sI53
I2
ssI2
(dp3
I0
I0
sI1
I2
sI2
I2
sI3
I1
sI4
I0
sI5
I1
sI6
I1
sI7
I1
sI8
I0
sI9
I1
sI10
I0
sI11
I1
sI12
I2
sI13
I1
sI14
I2
sI15
I1
sI16
I1
sI17
I0
sI18
I2
sI19
I0
sI20
I2
sI21
I1
sI22
I0
sI23
I0
sI24
I2
sI25
I0
sI26
I0
sI27
I1
sI28
I1
sI29
I0
sI30
I2
sI31
I2
sI32
I1
sI33
I2
sI34
I0
sI35
I0
sI36
I2
sI37
I1
sI38
I2
sI39
I2
sI40
I0
sI41
I2
sI42
I0
sI43
I0
sI44
I1
sI45
I2
sI46
I0
sI47
I0
sI48
I2
sI49
I1
sI50
I2
sI51
I2
sI52
I2
sI53
I0
ssI3
(dp4
I0
I0
sI1
I2
sI2
I2
sI3
I1
sI4
I1
sI5
I1
sI6
I2
sI7
I1
sI8
I1
sI9
I2
sI10
I2
sI11
I2
sI12
I2
sI13
I2
sI14
I0
sI15
I0
sI16
I0
sI17
I0
sI18
I1
sI19
I0
sI20
I0
sI21
I2
sI22
I2
sI23
I2
sI24
I2
sI25
I2
sI26
I0
sI27
I1
sI28
I2
sI29
I1
sI30
I2
sI31
I1
sI32
I1
sI33
I1
sI34
I1
sI35
I1
sI36
I2
sI37
I1
sI38
I2
sI39
I1
sI40
I1
sI41
I0
sI42
I1
sI43
I1
sI44
I2
sI45
I1
sI46
I1
sI47
I0
sI48
I2
sI49
I2
sI50
I0
sI51
I2
sI52
I1
sI53
I0
ssI4
(dp5
I0
I1
sI1
I1
sI2
I0
sI3
I0
sI4
I2
sI5
I2
sI6
I2
sI7
I1
sI8
I2
sI9
I0
sI10
I2
sI11
I0
sI12
I0
sI13
I2
sI14
I0
sI15
I1
sI16
I2
sI17
I0
sI18
I0
sI19
I0
sI20
I1
sI21
I2
sI22
I2
sI23
I1
sI24
I1
sI25
I1
sI26
I1
sI27
I0
sI28
I2
sI29
I1
sI30
I1
sI31
I0
sI32
I1
sI33
I0
sI34
I2
sI35
I2
sI36
I1
sI37
I1
sI38
I1
sI39
I1
sI40
I1
sI41
I1
sI42
I1
sI43
I2
sI44
I2
sI45
I0
sI46
I2
sI47
I1
sI48
I2
sI49
I1
sI50
I0
sI51
I0
sI52
I0
sI53
I2
ssI5
(dp6
I0
I1
sI1
I0
sI2
I1
sI3
I1
sI4
I1
sI5
I0
sI6
I0
sI7
I0
sI8
I0
sI9
I0
sI10
I1
sI11
I1
sI12
I1
sI13
I2
sI14
I1
sI15
I0
sI16
I0
sI17
I0
sI18
I1
sI19
I2
sI20
I1
sI21
I1
sI22
I1
sI23
I0
sI24
I2
sI25
I0
sI26
I2
sI27
I1
sI28
I0
sI29
I2
sI30
I2
sI31
I2
sI32
I2
sI33
I0
sI34
I2
sI35
I0
sI36
I1
sI37
I2
sI38
I1
sI39
I2
sI40
I0
sI41
I1
sI42
I0
sI43
I0
sI44
I0
sI45
I1
sI46
I0
sI47
I0
sI48
I2
sI49
I2
sI50
I0
sI51
I1
sI52
I2
sI53
I0
ssI6
(dp7
I0
I2
sI1
I0
sI2
I2
sI3
I1
sI4
I1
sI5
I1
sI6
I0
sI7
I2
sI8
I0
sI9
I1
sI10
I1
sI11
I1
sI12
I1
sI13
I2
sI14
I1
sI15
I2
sI16
I2
sI17
I2
sI18
I0
sI19
I1
sI20
I1
sI21
I2
sI22
I0
sI23
I2
sI24
I0
sI25
I2
sI26
I2
sI27
I2
sI28
I0
sI29
I2
sI30
I2
sI31
I2
sI32
I2
sI33
I0
sI34
I1
sI35
I1
sI36
I0
sI37
I2
sI38
I1
sI39
I0
sI40
I0
sI41
I1
sI42
I2
sI43
I2
sI44
I2
sI45
I0
sI46
I2
sI47
I2
sI48
I2
sI49
I1
sI50
I1
sI51
I0
sI52
I2
sI53
I0
ssI7
(dp8
I0
I2
sI1
I2
sI2
I0
sI3
I2
sI4
I2
sI5
I1
sI6
I0
sI7
I1
sI8
I0
sI9
I0
sI10
I0
sI11
I1
sI12
I2
sI13
I1
sI14
I0
sI15
I0
sI16
I0
sI17
I1
sI18
I2
sI19
I2
sI20
I0
sI21
I2
sI22
I2
sI23
I2
sI24
I2
sI25
I1
sI26
I1
sI27
I2
sI28
I1
sI29
I1
sI30
I2
sI31
I2
sI32
I2
sI33
I0
sI34
I0
sI35
I0
sI36
I1
sI37
I2
sI38
I1
sI39
I2
sI40
I2
sI41
I0
sI42
I1
sI43
I2
sI44
I0
sI45
I1
sI46
I2
sI47
I0
sI48
I0
sI49
I2
sI50
I1
sI51
I0
sI52
I1
sI53
I2
ssI8
(dp9
I0
I0
sI1
I2
sI2
I0
sI3
I2
sI4
I2
sI5
I0
sI6
I0
sI7
I1
sI8
I1
sI9
I2
sI10
I0
sI11
I1
sI12
I1
sI13
I0
sI14
I1
sI15
I0
sI16
I0
sI17
I0
sI18
I2
sI19
I0
sI20
I1
sI21
I1
sI22
I2
sI23
I2
sI24
I0
sI25
I2
sI26
I0
sI27
I2
sI28
I0
sI29
I2
sI30
I1
sI31
I2
sI32
I0
sI33
I0
sI34
I0
sI35
I2
sI36
I2
sI37
I1
sI38
I2
sI39
I2
sI40
I2
sI41
I1
sI42
I1
sI43
I0
sI44
I1
sI45
I1
sI46
I0
sI47
I0
sI48
I2
sI49
I0
sI50
I1
sI51
I1
sI52
I2
sI53
I2
ssI9
(dp10
I0
I1
sI1
I0
sI2
I1
sI3
I0
sI4
I2
sI5
I0
sI6
I1
sI7
I0
sI8
I2
sI9
I0
sI10
I2
sI11
I1
sI12
I2
sI13
I2
sI14
I2
sI15
I2
sI16
I1
sI17
I0
sI18
I2
sI19
I2
sI20
I0
sI21
I0
sI22
I1
sI23
I1
sI24
I2
sI25
I2
sI26
I1
sI27
I1
sI28
I0
sI29
I2
sI30
I2
sI31
I2
sI32
I0
sI33
I1
sI34
I0
sI35
I0
sI36
I1
sI37
I2
sI38
I1
sI39
I0
sI40
I0
sI41
I1
sI42
I1
sI43
I0
sI44
I0
sI45
I2
sI46
I2
sI47
I1
sI48
I0
sI49
I2
sI50
I0
sI51
I1
sI52
I1
sI53
I2
ssI-1
(dp11
I0
I1
sI1
I0
sI2
I1
sI3
I2
sI4
I0
sI5
I1
sI6
I2
sI7
I2
sI8
I0
sI9
I0
sI10
I1
sI11
I1
sI12
I0
sI13
I0
sI14
I0
sI15
I2
sI16
I2
sI17
I1
sI18
I2
sI19
I0
sI20
I0
sI21
I2
sI22
I2
sI23
I0
sI24
I1
sI25
I0
sI26
I1
sI27
I0
sI28
I0
sI29
I1
sI30
I0
sI31
I1
sI32
I0
sI33
I1
sI34
I1
sI35
I0
sI36
I2
sI37
I0
sI38
I0
sI39
I0
sI40
I1
sI41
I0
sI42
I0
sI43
I0
sI44
I2
sI45
I2
sI46
I0
sI47
I1
sI48
I2
sI49
I1
sI50
I1
sI51
I1
sI52
I2
sI53
I1
ss.